(dp0
(I326
I74
tp1
(lp2
(I290
I110
tp3
a(I362
I38
tp4
a(I290
I38
tp5
a(I362
I110
tp6
a(I326
I38
tp7
a(I290
I74
tp8
a(I326
I110
tp9
a(I362
I74
tp10
as(I938
I650
tp11
(lp12
(I902
I686
tp13
a(I974
I614
tp14
a(I974
I686
tp15
a(I938
I614
tp16
a(I902
I650
tp17
a(I938
I686
tp18
a(I974
I650
tp19
as(I74
I326
tp20
(lp21
(I38
I362
tp22
a(I110
I290
tp23
a(I38
I290
tp24
a(I110
I362
tp25
a(I74
I290
tp26
a(I38
I326
tp27
a(I74
I362
tp28
a(I110
I326
tp29
as(I758
I290
tp30
(lp31
(I722
I326
tp32
a(I794
I254
tp33
a(I794
I326
tp34
a(I758
I326
tp35
a(I794
I290
tp36
as(I1010
I722
tp37
(lp38
(I974
I758
tp39
a(I974
I686
tp40
a(I1010
I686
tp41
a(I974
I722
tp42
a(I1010
I758
tp43
as(I758
I722
tp44
(lp45
(I722
I758
tp46
a(I794
I686
tp47
a(I722
I686
tp48
a(I794
I758
tp49
a(I758
I686
tp50
a(I722
I722
tp51
a(I758
I758
tp52
a(I794
I722
tp53
as(I650
I758
tp54
(lp55
(I686
I722
tp56
a(I614
I722
tp57
a(I650
I722
tp58
a(I614
I758
tp59
a(I686
I758
tp60
as(I542
I506
tp61
(lp62
(I506
I542
tp63
a(I578
I470
tp64
a(I506
I470
tp65
a(I578
I542
tp66
a(I542
I470
tp67
a(I506
I506
tp68
a(I542
I542
tp69
a(I578
I506
tp70
as(I38
I74
tp71
(lp72
(I2
I110
tp73
a(I74
I38
tp74
a(I2
I38
tp75
a(I74
I110
tp76
a(I38
I38
tp77
a(I2
I74
tp78
a(I38
I110
tp79
a(I74
I74
tp80
as(I1010
I218
tp81
(lp82
(I1010
I182
tp83
a(I1010
I254
tp84
as(I146
I38
tp85
(lp86
(I110
I74
tp87
a(I182
I2
tp88
a(I110
I2
tp89
a(I182
I74
tp90
a(I146
I2
tp91
a(I110
I38
tp92
a(I182
I38
tp93
as(I578
I578
tp94
(lp95
(I614
I542
tp96
a(I542
I542
tp97
a(I614
I614
tp98
a(I578
I542
tp99
a(I614
I578
tp100
as(I506
I434
tp101
(lp102
(I470
I470
tp103
a(I542
I398
tp104
a(I470
I398
tp105
a(I542
I470
tp106
a(I506
I398
tp107
a(I470
I434
tp108
a(I506
I470
tp109
a(I542
I434
tp110
as(I74
I2
tp111
(lp112
(I38
I38
tp113
a(I110
I38
tp114
a(I38
I2
tp115
a(I74
I38
tp116
a(I110
I2
tp117
as(I398
I110
tp118
(lp119
(I362
I146
tp120
a(I434
I74
tp121
a(I362
I74
tp122
a(I434
I146
tp123
a(I398
I74
tp124
a(I362
I110
tp125
a(I398
I146
tp126
a(I434
I110
tp127
as(I218
I398
tp128
(lp129
(I182
I434
tp130
a(I254
I362
tp131
a(I182
I362
tp132
a(I254
I434
tp133
a(I218
I362
tp134
a(I182
I398
tp135
a(I218
I434
tp136
a(I254
I398
tp137
as(I974
I542
tp138
(lp139
(I938
I578
tp140
a(I1010
I506
tp141
a(I938
I506
tp142
a(I1010
I578
tp143
a(I974
I506
tp144
a(I938
I542
tp145
a(I974
I578
tp146
a(I1010
I542
tp147
as(I614
I74
tp148
(lp149
(I578
I110
tp150
a(I650
I38
tp151
a(I578
I38
tp152
a(I650
I110
tp153
a(I614
I38
tp154
a(I578
I74
tp155
a(I614
I110
tp156
a(I650
I74
tp157
as(I38
I254
tp158
(lp159
(I2
I290
tp160
a(I2
I218
tp161
a(I74
I290
tp162
a(I38
I218
tp163
a(I2
I254
tp164
a(I38
I290
tp165
as(I722
I326
tp166
(lp167
(I686
I362
tp168
a(I758
I290
tp169
a(I758
I362
tp170
a(I722
I362
tp171
a(I758
I326
tp172
as(I110
I290
tp173
(lp174
(I74
I326
tp175
a(I146
I326
tp176
a(I74
I290
tp177
a(I110
I326
tp178
as(I326
I434
tp179
(lp180
(I362
I398
tp181
a(I290
I398
tp182
a(I326
I398
tp183
a(I290
I434
tp184
a(I362
I434
tp185
as(I470
I470
tp186
(lp187
(I506
I434
tp188
a(I434
I434
tp189
a(I506
I506
tp190
a(I470
I434
tp191
a(I434
I470
tp192
a(I470
I506
tp193
a(I506
I470
tp194
as(I434
I218
tp195
(lp196
(I398
I254
tp197
a(I470
I182
tp198
a(I398
I182
tp199
a(I470
I254
tp200
a(I434
I182
tp201
a(I398
I218
tp202
a(I434
I254
tp203
a(I470
I218
tp204
as(I542
I362
tp205
(lp206
(I506
I398
tp207
a(I578
I398
tp208
a(I506
I362
tp209
a(I542
I398
tp210
a(I578
I362
tp211
as(I182
I326
tp212
(lp213
(I146
I362
tp214
a(I218
I362
tp215
a(I146
I326
tp216
a(I182
I362
tp217
as(I326
I686
tp218
(lp219
(I290
I722
tp220
a(I362
I650
tp221
a(I290
I650
tp222
a(I362
I722
tp223
a(I326
I650
tp224
a(I290
I686
tp225
a(I326
I722
tp226
a(I362
I686
tp227
as(I974
I758
tp228
(lp229
(I1010
I722
tp230
a(I938
I722
tp231
a(I974
I722
tp232
a(I938
I758
tp233
a(I1010
I758
tp234
as(I74
I38
tp235
(lp236
(I38
I74
tp237
a(I110
I2
tp238
a(I38
I2
tp239
a(I110
I74
tp240
a(I74
I2
tp241
a(I38
I38
tp242
a(I74
I74
tp243
a(I110
I38
tp244
as(I38
I434
tp245
(lp246
(I2
I470
tp247
a(I74
I398
tp248
a(I2
I398
tp249
a(I74
I470
tp250
a(I38
I398
tp251
a(I2
I434
tp252
a(I38
I470
tp253
a(I74
I434
tp254
as(I362
I74
tp255
(lp256
(I326
I110
tp257
a(I398
I38
tp258
a(I326
I38
tp259
a(I398
I110
tp260
a(I362
I38
tp261
a(I326
I74
tp262
a(I362
I110
tp263
a(I398
I74
tp264
as(I434
I470
tp265
(lp266
(I470
I434
tp267
a(I398
I434
tp268
a(I434
I434
tp269
a(I470
I470
tp270
as(I146
I326
tp271
(lp272
(I110
I362
tp273
a(I110
I290
tp274
a(I182
I362
tp275
a(I110
I326
tp276
a(I146
I362
tp277
a(I182
I326
tp278
as(I938
I470
tp279
(lp280
(I974
I434
tp281
a(I974
I506
tp282
a(I938
I434
tp283
a(I938
I506
tp284
a(I974
I470
tp285
as(I38
I110
tp286
(lp287
(I2
I146
tp288
a(I74
I74
tp289
a(I2
I74
tp290
a(I74
I146
tp291
a(I38
I74
tp292
a(I2
I110
tp293
a(I38
I146
tp294
a(I74
I110
tp295
as(I902
I218
tp296
(lp297
(I866
I254
tp298
a(I866
I218
tp299
as(I506
I542
tp300
(lp301
(I470
I578
tp302
a(I542
I506
tp303
a(I470
I506
tp304
a(I506
I506
tp305
a(I470
I542
tp306
a(I506
I578
tp307
a(I542
I542
tp308
as(I470
I74
tp309
(lp310
(I434
I110
tp311
a(I506
I38
tp312
a(I434
I38
tp313
a(I506
I110
tp314
a(I470
I38
tp315
a(I434
I74
tp316
a(I470
I110
tp317
a(I506
I74
tp318
as(I434
I74
tp319
(lp320
(I398
I110
tp321
a(I470
I38
tp322
a(I398
I38
tp323
a(I470
I110
tp324
a(I434
I38
tp325
a(I398
I74
tp326
a(I434
I110
tp327
a(I470
I74
tp328
as(I542
I398
tp329
(lp330
(I506
I434
tp331
a(I578
I362
tp332
a(I506
I362
tp333
a(I578
I434
tp334
a(I542
I362
tp335
a(I506
I398
tp336
a(I542
I434
tp337
a(I578
I398
tp338
as(I110
I110
tp339
(lp340
(I74
I146
tp341
a(I74
I74
tp342
a(I110
I74
tp343
a(I74
I110
tp344
as(I434
I614
tp345
(lp346
(I398
I650
tp347
a(I470
I578
tp348
a(I434
I578
tp349
a(I398
I614
tp350
a(I434
I650
tp351
a(I470
I614
tp352
as(I758
I74
tp353
(lp354
(I722
I110
tp355
a(I794
I38
tp356
a(I722
I38
tp357
a(I794
I110
tp358
a(I758
I38
tp359
a(I722
I74
tp360
a(I758
I110
tp361
a(I794
I74
tp362
as(I794
I146
tp363
(lp364
(I758
I110
tp365
a(I830
I182
tp366
a(I794
I110
tp367
a(I830
I146
tp368
as(I182
I362
tp369
(lp370
(I146
I398
tp371
a(I146
I326
tp372
a(I218
I398
tp373
a(I182
I326
tp374
a(I146
I362
tp375
a(I182
I398
tp376
a(I218
I362
tp377
as(I938
I326
tp378
(lp379
(I902
I290
tp380
a(I974
I362
tp381
a(I902
I326
tp382
a(I938
I362
tp383
a(I974
I326
tp384
as(I758
I686
tp385
(lp386
(I722
I722
tp387
a(I794
I650
tp388
a(I722
I650
tp389
a(I794
I722
tp390
a(I758
I650
tp391
a(I722
I686
tp392
a(I758
I722
tp393
a(I794
I686
tp394
as(I1010
I326
tp395
(lp396
(I974
I362
tp397
a(I1010
I290
tp398
a(I974
I326
tp399
a(I1010
I362
tp400
as(I614
I758
tp401
(lp402
(I650
I722
tp403
a(I614
I722
tp404
a(I578
I758
tp405
a(I650
I758
tp406
as(I326
I146
tp407
(lp408
(I362
I110
tp409
a(I290
I110
tp410
a(I362
I182
tp411
a(I326
I110
tp412
a(I290
I146
tp413
a(I362
I146
tp414
as(I542
I434
tp415
(lp416
(I506
I470
tp417
a(I578
I398
tp418
a(I506
I398
tp419
a(I578
I470
tp420
a(I542
I398
tp421
a(I506
I434
tp422
a(I542
I470
tp423
a(I578
I434
tp424
as(I398
I686
tp425
(lp426
(I362
I722
tp427
a(I434
I650
tp428
a(I362
I650
tp429
a(I434
I722
tp430
a(I398
I650
tp431
a(I362
I686
tp432
a(I398
I722
tp433
as(I974
I2
tp434
(lp435
(I938
I38
tp436
a(I1010
I38
tp437
a(I938
I2
tp438
a(I974
I38
tp439
a(I1010
I2
tp440
as(I146
I2
tp441
(lp442
(I110
I38
tp443
a(I182
I38
tp444
a(I110
I2
tp445
a(I146
I38
tp446
a(I182
I2
tp447
as(I686
I74
tp448
(lp449
(I650
I110
tp450
a(I722
I38
tp451
a(I650
I38
tp452
a(I722
I110
tp453
a(I686
I38
tp454
a(I650
I74
tp455
a(I686
I110
tp456
a(I722
I74
tp457
as(I1010
I2
tp458
(lp459
(I974
I38
tp460
a(I974
I2
tp461
a(I1010
I38
tp462
as(I722
I398
tp463
(lp464
(I686
I434
tp465
a(I758
I362
tp466
a(I686
I362
tp467
a(I722
I362
tp468
a(I686
I398
tp469
a(I722
I434
tp470
a(I758
I398
tp471
as(I866
I758
tp472
(lp473
(I902
I722
tp474
a(I830
I722
tp475
a(I866
I722
tp476
a(I830
I758
tp477
a(I902
I758
tp478
as(I38
I2
tp479
(lp480
(I2
I38
tp481
a(I74
I38
tp482
a(I2
I2
tp483
a(I38
I38
tp484
a(I74
I2
tp485
as(I506
I362
tp486
(lp487
(I470
I398
tp488
a(I470
I326
tp489
a(I542
I398
tp490
a(I470
I362
tp491
a(I506
I398
tp492
a(I542
I362
tp493
as(I650
I722
tp494
(lp495
(I614
I758
tp496
a(I686
I686
tp497
a(I614
I686
tp498
a(I686
I758
tp499
a(I650
I686
tp500
a(I614
I722
tp501
a(I650
I758
tp502
a(I686
I722
tp503
as(I110
I38
tp504
(lp505
(I74
I74
tp506
a(I146
I2
tp507
a(I74
I2
tp508
a(I110
I2
tp509
a(I74
I38
tp510
a(I110
I74
tp511
a(I146
I38
tp512
as(I614
I614
tp513
(lp514
(I650
I578
tp515
a(I578
I578
tp516
a(I650
I650
tp517
a(I614
I578
tp518
a(I614
I650
tp519
a(I650
I614
tp520
as(I542
I470
tp521
(lp522
(I506
I506
tp523
a(I578
I434
tp524
a(I506
I434
tp525
a(I578
I506
tp526
a(I542
I434
tp527
a(I506
I470
tp528
a(I542
I506
tp529
a(I578
I470
tp530
as(I110
I506
tp531
(lp532
(I146
I470
tp533
a(I74
I470
tp534
a(I110
I470
tp535
a(I74
I506
tp536
as(I218
I362
tp537
(lp538
(I182
I398
tp539
a(I182
I326
tp540
a(I254
I398
tp541
a(I182
I362
tp542
a(I218
I398
tp543
a(I254
I362
tp544
as(I1010
I254
tp545
(lp546
(I1010
I218
tp547
a(I1010
I290
tp548
as(I1010
I542
tp549
(lp550
(I974
I578
tp551
a(I974
I506
tp552
a(I1010
I506
tp553
a(I974
I542
tp554
a(I1010
I578
tp555
as(I830
I218
tp556
(lp557
(I794
I254
tp558
a(I866
I254
tp559
a(I830
I182
tp560
a(I830
I254
tp561
a(I866
I218
tp562
as(I2
I434
tp563
(lp564
(I38
I398
tp565
a(I38
I470
tp566
a(I2
I398
tp567
a(I2
I470
tp568
a(I38
I434
tp569
as(I38
I326
tp570
(lp571
(I2
I362
tp572
a(I74
I290
tp573
a(I2
I290
tp574
a(I74
I362
tp575
a(I38
I290
tp576
a(I2
I326
tp577
a(I38
I362
tp578
a(I74
I326
tp579
as(I290
I650
tp580
(lp581
(I254
I686
tp582
a(I326
I614
tp583
a(I326
I686
tp584
a(I290
I686
tp585
a(I326
I650
tp586
as(I74
I110
tp587
(lp588
(I38
I146
tp589
a(I110
I74
tp590
a(I38
I74
tp591
a(I74
I74
tp592
a(I38
I110
tp593
a(I74
I146
tp594
a(I110
I110
tp595
as(I2
I578
tp596
(lp597
(I38
I542
tp598
a(I2
I542
tp599
a(I2
I614
tp600
as(I650
I470
tp601
(lp602
(I614
I506
tp603
a(I686
I434
tp604
a(I614
I434
tp605
a(I650
I434
tp606
a(I614
I470
tp607
a(I686
I470
tp608
as(I542
I2
tp609
(lp610
(I506
I38
tp611
a(I578
I38
tp612
a(I506
I2
tp613
a(I542
I38
tp614
a(I578
I2
tp615
as(I506
I506
tp616
(lp617
(I470
I542
tp618
a(I542
I470
tp619
a(I470
I470
tp620
a(I542
I542
tp621
a(I506
I470
tp622
a(I470
I506
tp623
a(I506
I542
tp624
a(I542
I506
tp625
as(I218
I434
tp626
(lp627
(I254
I398
tp628
a(I182
I398
tp629
a(I218
I398
tp630
a(I182
I434
tp631
a(I254
I434
tp632
as(I938
I38
tp633
(lp634
(I902
I74
tp635
a(I974
I2
tp636
a(I902
I2
tp637
a(I974
I74
tp638
a(I938
I2
tp639
a(I902
I38
tp640
a(I938
I74
tp641
a(I974
I38
tp642
as(I866
I362
tp643
(lp644
(I902
I326
tp645
a(I830
I326
tp646
a(I866
I326
tp647
a(I830
I362
tp648
as(I398
I290
tp649
(lp650
(I434
I254
tp651
a(I434
I326
tp652
a(I398
I254
tp653
a(I398
I326
tp654
a(I434
I290
tp655
as(I866
I38
tp656
(lp657
(I830
I74
tp658
a(I902
I2
tp659
a(I830
I2
tp660
a(I902
I74
tp661
a(I866
I2
tp662
a(I830
I38
tp663
a(I866
I74
tp664
a(I902
I38
tp665
as(I1010
I434
tp666
(lp667
(I974
I470
tp668
a(I974
I398
tp669
a(I1010
I398
tp670
a(I974
I434
tp671
a(I1010
I470
tp672
as(I506
I182
tp673
(lp674
(I470
I218
tp675
a(I470
I146
tp676
a(I506
I146
tp677
a(I470
I182
tp678
as(I434
I254
tp679
(lp680
(I398
I290
tp681
a(I470
I218
tp682
a(I398
I218
tp683
a(I434
I218
tp684
a(I398
I254
tp685
a(I434
I290
tp686
a(I470
I254
tp687
as(I398
I254
tp688
(lp689
(I434
I218
tp690
a(I434
I290
tp691
a(I398
I218
tp692
a(I398
I290
tp693
a(I434
I254
tp694
as(I974
I722
tp695
(lp696
(I938
I758
tp697
a(I1010
I686
tp698
a(I938
I686
tp699
a(I1010
I758
tp700
a(I974
I686
tp701
a(I938
I722
tp702
a(I974
I758
tp703
a(I1010
I722
tp704
as(I722
I614
tp705
(lp706
(I686
I650
tp707
a(I686
I578
tp708
a(I758
I650
tp709
a(I686
I614
tp710
a(I722
I650
tp711
as(I470
I614
tp712
(lp713
(I434
I650
tp714
a(I506
I578
tp715
a(I434
I578
tp716
a(I470
I578
tp717
a(I434
I614
tp718
as(I254
I722
tp719
(lp720
(I218
I758
tp721
a(I290
I686
tp722
a(I290
I758
tp723
a(I254
I686
tp724
a(I218
I722
tp725
a(I254
I758
tp726
a(I290
I722
tp727
as(I542
I38
tp728
(lp729
(I506
I74
tp730
a(I578
I2
tp731
a(I506
I2
tp732
a(I578
I74
tp733
a(I542
I2
tp734
a(I506
I38
tp735
a(I542
I74
tp736
a(I578
I38
tp737
as(I686
I362
tp738
(lp739
(I650
I398
tp740
a(I722
I326
tp741
a(I722
I398
tp742
a(I686
I398
tp743
a(I722
I362
tp744
as(I830
I182
tp745
(lp746
(I794
I146
tp747
a(I866
I218
tp748
a(I830
I146
tp749
a(I830
I218
tp750
as(I2
I470
tp751
(lp752
(I38
I434
tp753
a(I38
I506
tp754
a(I2
I434
tp755
a(I2
I506
tp756
a(I38
I470
tp757
as(I182
I398
tp758
(lp759
(I146
I434
tp760
a(I218
I362
tp761
a(I146
I362
tp762
a(I218
I434
tp763
a(I182
I362
tp764
a(I146
I398
tp765
a(I182
I434
tp766
a(I218
I398
tp767
as(I254
I38
tp768
(lp769
(I218
I74
tp770
a(I290
I2
tp771
a(I218
I2
tp772
a(I290
I74
tp773
a(I254
I2
tp774
a(I218
I38
tp775
a(I254
I74
tp776
a(I290
I38
tp777
as(I398
I362
tp778
(lp779
(I434
I326
tp780
a(I434
I398
tp781
a(I398
I326
tp782
a(I434
I362
tp783
as(I1010
I686
tp784
(lp785
(I974
I722
tp786
a(I974
I650
tp787
a(I1010
I650
tp788
a(I974
I686
tp789
a(I1010
I722
tp790
as(I38
I542
tp791
(lp792
(I2
I578
tp793
a(I74
I506
tp794
a(I2
I506
tp795
a(I38
I506
tp796
a(I2
I542
tp797
as(I974
I506
tp798
(lp799
(I938
I542
tp800
a(I1010
I470
tp801
a(I938
I470
tp802
a(I1010
I542
tp803
a(I974
I470
tp804
a(I938
I506
tp805
a(I974
I542
tp806
a(I1010
I506
tp807
as(I470
I722
tp808
(lp809
(I434
I758
tp810
a(I506
I758
tp811
a(I434
I722
tp812
a(I470
I758
tp813
a(I506
I722
tp814
as(I290
I398
tp815
(lp816
(I254
I434
tp817
a(I254
I362
tp818
a(I326
I434
tp819
a(I254
I398
tp820
a(I290
I434
tp821
a(I326
I398
tp822
as(I902
I686
tp823
(lp824
(I866
I722
tp825
a(I938
I650
tp826
a(I866
I650
tp827
a(I938
I722
tp828
a(I902
I650
tp829
a(I866
I686
tp830
a(I902
I722
tp831
a(I938
I686
tp832
as(I2
I146
tp833
(lp834
(I38
I110
tp835
a(I38
I182
tp836
a(I2
I110
tp837
a(I2
I182
tp838
a(I38
I146
tp839
as(I614
I650
tp840
(lp841
(I650
I614
tp842
a(I650
I686
tp843
a(I614
I614
tp844
a(I614
I686
tp845
a(I650
I650
tp846
as(I434
I398
tp847
(lp848
(I398
I434
tp849
a(I470
I362
tp850
a(I398
I362
tp851
a(I470
I434
tp852
a(I434
I362
tp853
a(I434
I434
tp854
a(I470
I398
tp855
as(I938
I722
tp856
(lp857
(I902
I758
tp858
a(I974
I686
tp859
a(I902
I686
tp860
a(I974
I758
tp861
a(I938
I686
tp862
a(I902
I722
tp863
a(I938
I758
tp864
a(I974
I722
tp865
as(I902
I722
tp866
(lp867
(I866
I758
tp868
a(I938
I686
tp869
a(I866
I686
tp870
a(I938
I758
tp871
a(I902
I686
tp872
a(I866
I722
tp873
a(I902
I758
tp874
a(I938
I722
tp875
as(I758
I650
tp876
(lp877
(I722
I686
tp878
a(I722
I614
tp879
a(I794
I686
tp880
a(I722
I650
tp881
a(I758
I686
tp882
a(I794
I650
tp883
as(I470
I254
tp884
(lp885
(I434
I290
tp886
a(I434
I218
tp887
a(I470
I218
tp888
a(I434
I254
tp889
as(I290
I74
tp890
(lp891
(I254
I110
tp892
a(I326
I38
tp893
a(I254
I38
tp894
a(I326
I110
tp895
a(I290
I38
tp896
a(I254
I74
tp897
a(I290
I110
tp898
a(I326
I74
tp899
as(I470
I146
tp900
(lp901
(I434
I182
tp902
a(I506
I110
tp903
a(I434
I110
tp904
a(I506
I182
tp905
a(I470
I110
tp906
a(I434
I146
tp907
a(I470
I182
tp908
a(I506
I146
tp909
as(I38
I218
tp910
(lp911
(I2
I254
tp912
a(I74
I182
tp913
a(I2
I182
tp914
a(I38
I182
tp915
a(I2
I218
tp916
a(I38
I254
tp917
as(I650
I578
tp918
(lp919
(I614
I614
tp920
a(I614
I542
tp921
a(I686
I614
tp922
a(I614
I578
tp923
a(I650
I614
tp924
a(I686
I578
tp925
as(I326
I722
tp926
(lp927
(I290
I758
tp928
a(I362
I686
tp929
a(I290
I686
tp930
a(I362
I758
tp931
a(I326
I686
tp932
a(I290
I722
tp933
a(I326
I758
tp934
a(I362
I722
tp935
as(I110
I326
tp936
(lp937
(I74
I362
tp938
a(I74
I290
tp939
a(I146
I362
tp940
a(I110
I290
tp941
a(I74
I326
tp942
a(I110
I362
tp943
a(I146
I326
tp944
as(I794
I74
tp945
(lp946
(I758
I110
tp947
a(I830
I38
tp948
a(I758
I38
tp949
a(I794
I38
tp950
a(I758
I74
tp951
a(I794
I110
tp952
a(I830
I74
tp953
as(I218
I2
tp954
(lp955
(I182
I38
tp956
a(I254
I38
tp957
a(I182
I2
tp958
a(I218
I38
tp959
a(I254
I2
tp960
as(I470
I434
tp961
(lp962
(I434
I470
tp963
a(I506
I398
tp964
a(I434
I398
tp965
a(I506
I470
tp966
a(I470
I398
tp967
a(I434
I434
tp968
a(I470
I470
tp969
a(I506
I434
tp970
as(I614
I470
tp971
(lp972
(I578
I506
tp973
a(I650
I434
tp974
a(I578
I434
tp975
a(I614
I434
tp976
a(I578
I470
tp977
a(I614
I506
tp978
a(I650
I470
tp979
as(I686
I38
tp980
(lp981
(I650
I74
tp982
a(I722
I2
tp983
a(I650
I2
tp984
a(I722
I74
tp985
a(I686
I2
tp986
a(I650
I38
tp987
a(I686
I74
tp988
a(I722
I38
tp989
as(I938
I578
tp990
(lp991
(I974
I542
tp992
a(I974
I614
tp993
a(I938
I542
tp994
a(I938
I614
tp995
a(I974
I578
tp996
as(I506
I398
tp997
(lp998
(I470
I434
tp999
a(I542
I362
tp1000
a(I470
I362
tp1001
a(I542
I434
tp1002
a(I506
I362
tp1003
a(I470
I398
tp1004
a(I506
I434
tp1005
a(I542
I398
tp1006
as(I1010
I398
tp1007
(lp1008
(I974
I434
tp1009
a(I974
I362
tp1010
a(I1010
I362
tp1011
a(I974
I398
tp1012
a(I1010
I434
tp1013
as(I74
I74
tp1014
(lp1015
(I38
I110
tp1016
a(I110
I38
tp1017
a(I38
I38
tp1018
a(I110
I110
tp1019
a(I74
I38
tp1020
a(I38
I74
tp1021
a(I74
I110
tp1022
a(I110
I74
tp1023
as(I470
I398
tp1024
(lp1025
(I434
I434
tp1026
a(I506
I362
tp1027
a(I434
I362
tp1028
a(I506
I434
tp1029
a(I470
I362
tp1030
a(I434
I398
tp1031
a(I470
I434
tp1032
a(I506
I398
tp1033
as(I2
I650
tp1034
(lp1035
(I2
I614
tp1036
as(I362
I110
tp1037
(lp1038
(I326
I146
tp1039
a(I398
I74
tp1040
a(I326
I74
tp1041
a(I398
I146
tp1042
a(I362
I74
tp1043
a(I326
I110
tp1044
a(I362
I146
tp1045
a(I398
I110
tp1046
as(I902
I290
tp1047
(lp1048
(I866
I326
tp1049
a(I866
I254
tp1050
a(I938
I326
tp1051
a(I866
I290
tp1052
a(I902
I326
tp1053
as(I146
I362
tp1054
(lp1055
(I110
I398
tp1056
a(I182
I326
tp1057
a(I110
I326
tp1058
a(I182
I398
tp1059
a(I146
I326
tp1060
a(I110
I362
tp1061
a(I146
I398
tp1062
a(I182
I362
tp1063
as(I398
I74
tp1064
(lp1065
(I362
I110
tp1066
a(I434
I38
tp1067
a(I362
I38
tp1068
a(I434
I110
tp1069
a(I398
I38
tp1070
a(I362
I74
tp1071
a(I398
I110
tp1072
a(I434
I74
tp1073
as(I614
I38
tp1074
(lp1075
(I578
I74
tp1076
a(I650
I2
tp1077
a(I578
I2
tp1078
a(I650
I74
tp1079
a(I614
I2
tp1080
a(I578
I38
tp1081
a(I614
I74
tp1082
a(I650
I38
tp1083
as(I722
I686
tp1084
(lp1085
(I686
I722
tp1086
a(I758
I650
tp1087
a(I686
I650
tp1088
a(I758
I722
tp1089
a(I722
I650
tp1090
a(I686
I686
tp1091
a(I722
I722
tp1092
a(I758
I686
tp1093
as(I2
I74
tp1094
(lp1095
(I38
I38
tp1096
a(I38
I110
tp1097
a(I2
I38
tp1098
a(I2
I110
tp1099
a(I38
I74
tp1100
as(I506
I74
tp1101
(lp1102
(I470
I110
tp1103
a(I542
I38
tp1104
a(I470
I38
tp1105
a(I542
I110
tp1106
a(I506
I38
tp1107
a(I470
I74
tp1108
a(I506
I110
tp1109
a(I542
I74
tp1110
as(I290
I686
tp1111
(lp1112
(I254
I722
tp1113
a(I326
I650
tp1114
a(I326
I722
tp1115
a(I290
I650
tp1116
a(I254
I686
tp1117
a(I290
I722
tp1118
a(I326
I686
tp1119
as(I218
I146
tp1120
(lp1121
(I254
I110
tp1122
a(I218
I110
tp1123
a(I218
I182
tp1124
a(I254
I146
tp1125
as(I434
I758
tp1126
(lp1127
(I470
I722
tp1128
a(I398
I722
tp1129
a(I434
I722
tp1130
a(I398
I758
tp1131
a(I470
I758
tp1132
as(I578
I434
tp1133
(lp1134
(I542
I470
tp1135
a(I614
I398
tp1136
a(I542
I398
tp1137
a(I614
I470
tp1138
a(I578
I398
tp1139
a(I542
I434
tp1140
a(I578
I470
tp1141
a(I614
I434
tp1142
as(I830
I650
tp1143
(lp1144
(I794
I686
tp1145
a(I866
I686
tp1146
a(I794
I650
tp1147
a(I830
I686
tp1148
a(I866
I650
tp1149
as(I578
I758
tp1150
(lp1151
(I614
I722
tp1152
a(I542
I758
tp1153
a(I614
I758
tp1154
as(I614
I434
tp1155
(lp1156
(I578
I470
tp1157
a(I650
I398
tp1158
a(I578
I398
tp1159
a(I650
I470
tp1160
a(I614
I398
tp1161
a(I578
I434
tp1162
a(I614
I470
tp1163
a(I650
I434
tp1164
as(I722
I110
tp1165
(lp1166
(I758
I74
tp1167
a(I686
I74
tp1168
a(I722
I74
tp1169
a(I686
I110
tp1170
a(I758
I110
tp1171
as(I398
I218
tp1172
(lp1173
(I434
I182
tp1174
a(I362
I182
tp1175
a(I434
I254
tp1176
a(I398
I182
tp1177
a(I398
I254
tp1178
a(I434
I218
tp1179
as(I290
I2
tp1180
(lp1181
(I254
I38
tp1182
a(I326
I38
tp1183
a(I254
I2
tp1184
a(I290
I38
tp1185
a(I326
I2
tp1186
as(I38
I506
tp1187
(lp1188
(I2
I542
tp1189
a(I74
I470
tp1190
a(I2
I470
tp1191
a(I38
I470
tp1192
a(I2
I506
tp1193
a(I38
I542
tp1194
a(I74
I506
tp1195
as(I614
I722
tp1196
(lp1197
(I578
I758
tp1198
a(I650
I686
tp1199
a(I650
I758
tp1200
a(I614
I686
tp1201
a(I614
I758
tp1202
a(I650
I722
tp1203
as(I2
I38
tp1204
(lp1205
(I38
I2
tp1206
a(I38
I74
tp1207
a(I2
I2
tp1208
a(I2
I74
tp1209
a(I38
I38
tp1210
as(I146
I398
tp1211
(lp1212
(I110
I434
tp1213
a(I182
I362
tp1214
a(I110
I362
tp1215
a(I182
I434
tp1216
a(I146
I362
tp1217
a(I110
I398
tp1218
a(I146
I434
tp1219
a(I182
I398
tp1220
as(I866
I74
tp1221
(lp1222
(I902
I38
tp1223
a(I830
I38
tp1224
a(I866
I38
tp1225
a(I830
I74
tp1226
a(I902
I74
tp1227
as(I578
I2
tp1228
(lp1229
(I542
I38
tp1230
a(I614
I38
tp1231
a(I542
I2
tp1232
a(I578
I38
tp1233
a(I614
I2
tp1234
as(I290
I38
tp1235
(lp1236
(I254
I74
tp1237
a(I326
I2
tp1238
a(I254
I2
tp1239
a(I326
I74
tp1240
a(I290
I2
tp1241
a(I254
I38
tp1242
a(I290
I74
tp1243
a(I326
I38
tp1244
as(I38
I362
tp1245
(lp1246
(I2
I398
tp1247
a(I74
I326
tp1248
a(I2
I326
tp1249
a(I74
I398
tp1250
a(I38
I326
tp1251
a(I2
I362
tp1252
a(I38
I398
tp1253
a(I74
I362
tp1254
as(I74
I362
tp1255
(lp1256
(I38
I398
tp1257
a(I110
I326
tp1258
a(I38
I326
tp1259
a(I110
I398
tp1260
a(I74
I326
tp1261
a(I38
I362
tp1262
a(I74
I398
tp1263
a(I110
I362
tp1264
as(I1010
I146
tp1265
(lp1266
(I1010
I110
tp1267
a(I1010
I182
tp1268
as(I398
I326
tp1269
(lp1270
(I434
I290
tp1271
a(I434
I362
tp1272
a(I398
I290
tp1273
a(I398
I362
tp1274
a(I434
I326
tp1275
as(I578
I470
tp1276
(lp1277
(I542
I506
tp1278
a(I614
I434
tp1279
a(I542
I434
tp1280
a(I614
I506
tp1281
a(I578
I434
tp1282
a(I542
I470
tp1283
a(I578
I506
tp1284
a(I614
I470
tp1285
as(I794
I362
tp1286
(lp1287
(I758
I398
tp1288
a(I830
I326
tp1289
a(I758
I326
tp1290
a(I794
I326
tp1291
a(I758
I362
tp1292
a(I794
I398
tp1293
a(I830
I362
tp1294
as(I974
I470
tp1295
(lp1296
(I938
I506
tp1297
a(I1010
I434
tp1298
a(I938
I434
tp1299
a(I1010
I506
tp1300
a(I974
I434
tp1301
a(I938
I470
tp1302
a(I974
I506
tp1303
a(I1010
I470
tp1304
as(I182
I758
tp1305
(lp1306
(I218
I722
tp1307
a(I182
I722
tp1308
a(I146
I758
tp1309
a(I218
I758
tp1310
as(I902
I650
tp1311
(lp1312
(I866
I686
tp1313
a(I938
I614
tp1314
a(I938
I686
tp1315
a(I866
I650
tp1316
a(I902
I686
tp1317
a(I938
I650
tp1318
as(I218
I110
tp1319
(lp1320
(I254
I74
tp1321
a(I182
I74
tp1322
a(I254
I146
tp1323
a(I218
I74
tp1324
a(I218
I146
tp1325
a(I254
I110
tp1326
as(I614
I578
tp1327
(lp1328
(I578
I542
tp1329
a(I650
I614
tp1330
a(I614
I542
tp1331
a(I578
I578
tp1332
a(I614
I614
tp1333
a(I650
I578
tp1334
as(I434
I434
tp1335
(lp1336
(I470
I398
tp1337
a(I470
I470
tp1338
a(I434
I398
tp1339
a(I398
I434
tp1340
a(I434
I470
tp1341
a(I470
I434
tp1342
as(I1010
I362
tp1343
(lp1344
(I974
I398
tp1345
a(I974
I326
tp1346
a(I1010
I326
tp1347
a(I974
I362
tp1348
a(I1010
I398
tp1349
as(I110
I470
tp1350
(lp1351
(I74
I506
tp1352
a(I146
I434
tp1353
a(I74
I434
tp1354
a(I110
I434
tp1355
a(I74
I470
tp1356
a(I110
I506
tp1357
a(I146
I470
tp1358
as(I218
I182
tp1359
(lp1360
(I254
I146
tp1361
a(I218
I146
tp1362
as(I758
I326
tp1363
(lp1364
(I722
I362
tp1365
a(I794
I290
tp1366
a(I794
I362
tp1367
a(I758
I290
tp1368
a(I722
I326
tp1369
a(I758
I362
tp1370
a(I794
I326
tp1371
as(I830
I362
tp1372
(lp1373
(I794
I398
tp1374
a(I866
I326
tp1375
a(I794
I326
tp1376
a(I830
I326
tp1377
a(I794
I362
tp1378
a(I866
I362
tp1379
as(I326
I398
tp1380
(lp1381
(I290
I434
tp1382
a(I362
I434
tp1383
a(I290
I398
tp1384
a(I326
I434
tp1385
a(I362
I398
tp1386
as(I362
I758
tp1387
(lp1388
(I398
I722
tp1389
a(I326
I722
tp1390
a(I362
I722
tp1391
a(I326
I758
tp1392
a(I398
I758
tp1393
as(I902
I74
tp1394
(lp1395
(I938
I38
tp1396
a(I866
I38
tp1397
a(I902
I38
tp1398
a(I866
I74
tp1399
a(I938
I74
tp1400
as(I362
I434
tp1401
(lp1402
(I326
I398
tp1403
a(I362
I398
tp1404
a(I326
I434
tp1405
a(I398
I434
tp1406
as(I470
I218
tp1407
(lp1408
(I434
I254
tp1409
a(I506
I182
tp1410
a(I434
I182
tp1411
a(I470
I182
tp1412
a(I434
I218
tp1413
a(I470
I254
tp1414
as(I290
I758
tp1415
(lp1416
(I326
I722
tp1417
a(I254
I722
tp1418
a(I290
I722
tp1419
a(I254
I758
tp1420
a(I326
I758
tp1421
as(I794
I722
tp1422
(lp1423
(I758
I758
tp1424
a(I830
I686
tp1425
a(I758
I686
tp1426
a(I830
I758
tp1427
a(I794
I686
tp1428
a(I758
I722
tp1429
a(I794
I758
tp1430
a(I830
I722
tp1431
as(I686
I686
tp1432
(lp1433
(I650
I722
tp1434
a(I722
I650
tp1435
a(I650
I650
tp1436
a(I722
I722
tp1437
a(I686
I650
tp1438
a(I650
I686
tp1439
a(I686
I722
tp1440
a(I722
I686
tp1441
as(I1010
I74
tp1442
(lp1443
(I974
I38
tp1444
a(I1010
I38
tp1445
a(I974
I74
tp1446
a(I1010
I110
tp1447
as(I434
I110
tp1448
(lp1449
(I398
I146
tp1450
a(I470
I74
tp1451
a(I398
I74
tp1452
a(I470
I146
tp1453
a(I434
I74
tp1454
a(I398
I110
tp1455
a(I434
I146
tp1456
a(I470
I110
tp1457
as(I434
I290
tp1458
(lp1459
(I398
I326
tp1460
a(I470
I254
tp1461
a(I398
I254
tp1462
a(I470
I326
tp1463
a(I434
I254
tp1464
a(I398
I290
tp1465
a(I434
I326
tp1466
as(I146
I470
tp1467
(lp1468
(I110
I506
tp1469
a(I182
I434
tp1470
a(I110
I434
tp1471
a(I146
I434
tp1472
a(I110
I470
tp1473
as(I74
I434
tp1474
(lp1475
(I38
I470
tp1476
a(I110
I398
tp1477
a(I38
I398
tp1478
a(I110
I470
tp1479
a(I74
I398
tp1480
a(I38
I434
tp1481
a(I74
I470
tp1482
a(I110
I434
tp1483
as(I2
I362
tp1484
(lp1485
(I38
I326
tp1486
a(I38
I398
tp1487
a(I2
I326
tp1488
a(I2
I398
tp1489
a(I38
I362
tp1490
as(I722
I722
tp1491
(lp1492
(I686
I758
tp1493
a(I758
I686
tp1494
a(I686
I686
tp1495
a(I758
I758
tp1496
a(I722
I686
tp1497
a(I686
I722
tp1498
a(I722
I758
tp1499
a(I758
I722
tp1500
as(I470
I578
tp1501
(lp1502
(I434
I614
tp1503
a(I506
I542
tp1504
a(I470
I542
tp1505
a(I434
I578
tp1506
a(I470
I614
tp1507
a(I506
I578
tp1508
as(I650
I614
tp1509
(lp1510
(I614
I650
tp1511
a(I686
I578
tp1512
a(I614
I578
tp1513
a(I686
I650
tp1514
a(I650
I578
tp1515
a(I614
I614
tp1516
a(I650
I650
tp1517
a(I686
I614
tp1518
as(I506
I578
tp1519
(lp1520
(I470
I614
tp1521
a(I542
I542
tp1522
a(I470
I542
tp1523
a(I506
I542
tp1524
a(I470
I578
tp1525
as(I938
I686
tp1526
(lp1527
(I902
I722
tp1528
a(I974
I650
tp1529
a(I902
I650
tp1530
a(I974
I722
tp1531
a(I938
I650
tp1532
a(I902
I686
tp1533
a(I938
I722
tp1534
a(I974
I686
tp1535
as(I830
I146
tp1536
(lp1537
(I794
I110
tp1538
a(I794
I146
tp1539
a(I830
I182
tp1540
as(I470
I110
tp1541
(lp1542
(I434
I146
tp1543
a(I506
I74
tp1544
a(I434
I74
tp1545
a(I506
I146
tp1546
a(I470
I74
tp1547
a(I434
I110
tp1548
a(I470
I146
tp1549
a(I506
I110
tp1550
as(I470
I542
tp1551
(lp1552
(I434
I578
tp1553
a(I506
I506
tp1554
a(I506
I578
tp1555
a(I470
I506
tp1556
a(I470
I578
tp1557
a(I506
I542
tp1558
as(I506
I110
tp1559
(lp1560
(I470
I146
tp1561
a(I542
I74
tp1562
a(I470
I74
tp1563
a(I506
I74
tp1564
a(I470
I110
tp1565
a(I506
I146
tp1566
a(I542
I110
tp1567
as(I38
I182
tp1568
(lp1569
(I2
I218
tp1570
a(I74
I146
tp1571
a(I2
I146
tp1572
a(I38
I146
tp1573
a(I2
I182
tp1574
a(I38
I218
tp1575
a(I74
I182
tp1576
as(I2
I110
tp1577
(lp1578
(I38
I74
tp1579
a(I38
I146
tp1580
a(I2
I74
tp1581
a(I2
I146
tp1582
a(I38
I110
tp1583
as(I2
I398
tp1584
(lp1585
(I38
I362
tp1586
a(I38
I434
tp1587
a(I2
I362
tp1588
a(I2
I434
tp1589
a(I38
I398
tp1590
as(I866
I326
tp1591
(lp1592
(I830
I362
tp1593
a(I902
I290
tp1594
a(I830
I290
tp1595
a(I866
I290
tp1596
a(I830
I326
tp1597
a(I866
I362
tp1598
a(I902
I326
tp1599
as(I938
I362
tp1600
(lp1601
(I974
I326
tp1602
a(I902
I326
tp1603
a(I974
I398
tp1604
a(I938
I326
tp1605
a(I938
I398
tp1606
a(I974
I362
tp1607
as(I362
I398
tp1608
(lp1609
(I326
I434
tp1610
a(I398
I434
tp1611
a(I326
I398
tp1612
a(I362
I434
tp1613
as(I1010
I110
tp1614
(lp1615
(I974
I74
tp1616
a(I1010
I74
tp1617
a(I1010
I146
tp1618
as(I398
I146
tp1619
(lp1620
(I362
I182
tp1621
a(I434
I110
tp1622
a(I362
I110
tp1623
a(I434
I182
tp1624
a(I398
I110
tp1625
a(I362
I146
tp1626
a(I398
I182
tp1627
a(I434
I146
tp1628
as(I938
I758
tp1629
(lp1630
(I974
I722
tp1631
a(I902
I722
tp1632
a(I938
I722
tp1633
a(I902
I758
tp1634
a(I974
I758
tp1635
as(I506
I722
tp1636
(lp1637
(I470
I758
tp1638
a(I542
I758
tp1639
a(I470
I722
tp1640
a(I506
I758
tp1641
as(I470
I506
tp1642
(lp1643
(I506
I470
tp1644
a(I506
I542
tp1645
a(I470
I470
tp1646
a(I470
I542
tp1647
a(I506
I506
tp1648
as(I794
I758
tp1649
(lp1650
(I830
I722
tp1651
a(I758
I722
tp1652
a(I794
I722
tp1653
a(I758
I758
tp1654
a(I830
I758
tp1655
as(I362
I146
tp1656
(lp1657
(I398
I110
tp1658
a(I326
I110
tp1659
a(I398
I182
tp1660
a(I362
I110
tp1661
a(I326
I146
tp1662
a(I362
I182
tp1663
a(I398
I146
tp1664
as(I74
I398
tp1665
(lp1666
(I38
I434
tp1667
a(I110
I362
tp1668
a(I38
I362
tp1669
a(I110
I434
tp1670
a(I74
I362
tp1671
a(I38
I398
tp1672
a(I74
I434
tp1673
a(I110
I398
tp1674
as(I218
I38
tp1675
(lp1676
(I182
I74
tp1677
a(I254
I2
tp1678
a(I182
I2
tp1679
a(I254
I74
tp1680
a(I218
I2
tp1681
a(I182
I38
tp1682
a(I218
I74
tp1683
a(I254
I38
tp1684
as(I38
I398
tp1685
(lp1686
(I2
I434
tp1687
a(I74
I362
tp1688
a(I2
I362
tp1689
a(I74
I434
tp1690
a(I38
I362
tp1691
a(I2
I398
tp1692
a(I38
I434
tp1693
a(I74
I398
tp1694
as(I1010
I758
tp1695
(lp1696
(I974
I722
tp1697
a(I1010
I722
tp1698
a(I974
I758
tp1699
as(I938
I614
tp1700
(lp1701
(I902
I650
tp1702
a(I974
I578
tp1703
a(I974
I650
tp1704
a(I938
I578
tp1705
a(I938
I650
tp1706
a(I974
I614
tp1707
as(I686
I614
tp1708
(lp1709
(I650
I650
tp1710
a(I650
I578
tp1711
a(I722
I650
tp1712
a(I686
I578
tp1713
a(I650
I614
tp1714
a(I686
I650
tp1715
a(I722
I614
tp1716
as(I182
I722
tp1717
(lp1718
(I146
I758
tp1719
a(I218
I758
tp1720
a(I182
I758
tp1721
a(I218
I722
tp1722
as(I938
I506
tp1723
(lp1724
(I974
I470
tp1725
a(I974
I542
tp1726
a(I938
I470
tp1727
a(I938
I542
tp1728
a(I974
I506
tp1729
as(I362
I2
tp1730
(lp1731
(I326
I38
tp1732
a(I398
I38
tp1733
a(I326
I2
tp1734
a(I362
I38
tp1735
a(I398
I2
tp1736
as(I326
I614
tp1737
(lp1738
(I290
I650
tp1739
a(I362
I650
tp1740
a(I326
I650
tp1741
a(I362
I614
tp1742
as(I182
I2
tp1743
(lp1744
(I146
I38
tp1745
a(I218
I38
tp1746
a(I146
I2
tp1747
a(I182
I38
tp1748
a(I218
I2
tp1749
as(I614
I2
tp1750
(lp1751
(I578
I38
tp1752
a(I650
I38
tp1753
a(I578
I2
tp1754
a(I614
I38
tp1755
a(I650
I2
tp1756
as(I470
I38
tp1757
(lp1758
(I434
I74
tp1759
a(I506
I2
tp1760
a(I434
I2
tp1761
a(I506
I74
tp1762
a(I470
I2
tp1763
a(I434
I38
tp1764
a(I470
I74
tp1765
a(I506
I38
tp1766
as(I470
I362
tp1767
(lp1768
(I434
I398
tp1769
a(I434
I326
tp1770
a(I506
I398
tp1771
a(I470
I326
tp1772
a(I434
I362
tp1773
a(I470
I398
tp1774
a(I506
I362
tp1775
as(I1010
I650
tp1776
(lp1777
(I974
I686
tp1778
a(I974
I614
tp1779
a(I1010
I614
tp1780
a(I974
I650
tp1781
a(I1010
I686
tp1782
as(I578
I542
tp1783
(lp1784
(I614
I506
tp1785
a(I542
I506
tp1786
a(I614
I578
tp1787
a(I578
I506
tp1788
a(I542
I542
tp1789
a(I578
I578
tp1790
a(I614
I542
tp1791
as(I398
I434
tp1792
(lp1793
(I434
I398
tp1794
a(I362
I398
tp1795
a(I434
I470
tp1796
a(I362
I434
tp1797
a(I434
I434
tp1798
as(I830
I758
tp1799
(lp1800
(I866
I722
tp1801
a(I794
I722
tp1802
a(I830
I722
tp1803
a(I794
I758
tp1804
a(I866
I758
tp1805
as(I434
I146
tp1806
(lp1807
(I398
I182
tp1808
a(I470
I110
tp1809
a(I398
I110
tp1810
a(I470
I182
tp1811
a(I434
I110
tp1812
a(I398
I146
tp1813
a(I434
I182
tp1814
a(I470
I146
tp1815
as(I686
I758
tp1816
(lp1817
(I722
I722
tp1818
a(I650
I722
tp1819
a(I686
I722
tp1820
a(I650
I758
tp1821
a(I722
I758
tp1822
as(I146
I758
tp1823
(lp1824
(I182
I722
tp1825
a(I182
I758
tp1826
as(I182
I38
tp1827
(lp1828
(I218
I2
tp1829
a(I146
I2
tp1830
a(I218
I74
tp1831
a(I182
I2
tp1832
a(I146
I38
tp1833
a(I182
I74
tp1834
a(I218
I38
tp1835
as(I254
I398
tp1836
(lp1837
(I218
I434
tp1838
a(I218
I362
tp1839
a(I290
I434
tp1840
a(I254
I362
tp1841
a(I218
I398
tp1842
a(I254
I434
tp1843
a(I290
I398
tp1844
as(I650
I38
tp1845
(lp1846
(I614
I74
tp1847
a(I686
I2
tp1848
a(I614
I2
tp1849
a(I686
I74
tp1850
a(I650
I2
tp1851
a(I614
I38
tp1852
a(I650
I74
tp1853
a(I686
I38
tp1854
as(I578
I362
tp1855
(lp1856
(I542
I398
tp1857
a(I614
I398
tp1858
a(I542
I362
tp1859
a(I578
I398
tp1860
as(I830
I74
tp1861
(lp1862
(I794
I110
tp1863
a(I866
I38
tp1864
a(I794
I38
tp1865
a(I830
I38
tp1866
a(I794
I74
tp1867
a(I866
I74
tp1868
as(I74
I470
tp1869
(lp1870
(I38
I506
tp1871
a(I110
I434
tp1872
a(I38
I434
tp1873
a(I110
I506
tp1874
a(I74
I434
tp1875
a(I38
I470
tp1876
a(I74
I506
tp1877
a(I110
I470
tp1878
as(I362
I650
tp1879
(lp1880
(I326
I686
tp1881
a(I398
I614
tp1882
a(I326
I614
tp1883
a(I398
I686
tp1884
a(I362
I614
tp1885
a(I326
I650
tp1886
a(I362
I686
tp1887
a(I398
I650
tp1888
as(I146
I434
tp1889
(lp1890
(I110
I470
tp1891
a(I182
I398
tp1892
a(I110
I398
tp1893
a(I146
I398
tp1894
a(I110
I434
tp1895
a(I146
I470
tp1896
a(I182
I434
tp1897
as(I398
I2
tp1898
(lp1899
(I362
I38
tp1900
a(I434
I38
tp1901
a(I362
I2
tp1902
a(I398
I38
tp1903
a(I434
I2
tp1904
as(I578
I38
tp1905
(lp1906
(I542
I74
tp1907
a(I614
I2
tp1908
a(I542
I2
tp1909
a(I614
I74
tp1910
a(I578
I2
tp1911
a(I542
I38
tp1912
a(I578
I74
tp1913
a(I614
I38
tp1914
as(I434
I2
tp1915
(lp1916
(I398
I38
tp1917
a(I470
I38
tp1918
a(I398
I2
tp1919
a(I434
I38
tp1920
a(I470
I2
tp1921
as(I74
I146
tp1922
(lp1923
(I38
I182
tp1924
a(I110
I110
tp1925
a(I38
I110
tp1926
a(I74
I110
tp1927
a(I38
I146
tp1928
a(I74
I182
tp1929
as(I182
I434
tp1930
(lp1931
(I146
I470
tp1932
a(I218
I398
tp1933
a(I146
I398
tp1934
a(I182
I398
tp1935
a(I146
I434
tp1936
a(I218
I434
tp1937
as(I434
I650
tp1938
(lp1939
(I398
I686
tp1940
a(I470
I614
tp1941
a(I398
I614
tp1942
a(I434
I614
tp1943
a(I398
I650
tp1944
as(I578
I506
tp1945
(lp1946
(I542
I542
tp1947
a(I614
I470
tp1948
a(I542
I470
tp1949
a(I614
I542
tp1950
a(I578
I470
tp1951
a(I542
I506
tp1952
a(I578
I542
tp1953
a(I614
I506
tp1954
as(I650
I2
tp1955
(lp1956
(I614
I38
tp1957
a(I686
I38
tp1958
a(I614
I2
tp1959
a(I650
I38
tp1960
a(I686
I2
tp1961
as(I722
I2
tp1962
(lp1963
(I686
I38
tp1964
a(I758
I38
tp1965
a(I686
I2
tp1966
a(I722
I38
tp1967
a(I758
I2
tp1968
as(I470
I326
tp1969
(lp1970
(I434
I362
tp1971
a(I434
I290
tp1972
a(I506
I362
tp1973
a(I434
I326
tp1974
a(I470
I362
tp1975
as(I578
I398
tp1976
(lp1977
(I542
I434
tp1978
a(I542
I362
tp1979
a(I614
I434
tp1980
a(I578
I362
tp1981
a(I542
I398
tp1982
a(I578
I434
tp1983
a(I614
I398
tp1984
as(I830
I38
tp1985
(lp1986
(I794
I74
tp1987
a(I866
I2
tp1988
a(I794
I2
tp1989
a(I866
I74
tp1990
a(I830
I2
tp1991
a(I794
I38
tp1992
a(I830
I74
tp1993
a(I866
I38
tp1994
as(I866
I722
tp1995
(lp1996
(I830
I758
tp1997
a(I902
I686
tp1998
a(I830
I686
tp1999
a(I902
I758
tp2000
a(I866
I686
tp2001
a(I830
I722
tp2002
a(I866
I758
tp2003
a(I902
I722
tp2004
as(I506
I758
tp2005
(lp2006
(I470
I722
tp2007
a(I506
I722
tp2008
a(I470
I758
tp2009
a(I542
I758
tp2010
as(I974
I614
tp2011
(lp2012
(I938
I650
tp2013
a(I1010
I578
tp2014
a(I938
I578
tp2015
a(I1010
I650
tp2016
a(I974
I578
tp2017
a(I938
I614
tp2018
a(I974
I650
tp2019
a(I1010
I614
tp2020
as(I254
I146
tp2021
(lp2022
(I218
I182
tp2023
a(I290
I110
tp2024
a(I218
I110
tp2025
a(I254
I110
tp2026
a(I218
I146
tp2027
a(I290
I146
tp2028
as(I722
I74
tp2029
(lp2030
(I686
I110
tp2031
a(I758
I38
tp2032
a(I686
I38
tp2033
a(I758
I110
tp2034
a(I722
I38
tp2035
a(I686
I74
tp2036
a(I722
I110
tp2037
a(I758
I74
tp2038
as(I2
I506
tp2039
(lp2040
(I38
I470
tp2041
a(I38
I542
tp2042
a(I2
I470
tp2043
a(I2
I542
tp2044
a(I38
I506
tp2045
as(I326
I758
tp2046
(lp2047
(I362
I722
tp2048
a(I290
I722
tp2049
a(I326
I722
tp2050
a(I290
I758
tp2051
a(I362
I758
tp2052
as(I974
I74
tp2053
(lp2054
(I1010
I38
tp2055
a(I938
I38
tp2056
a(I1010
I110
tp2057
a(I974
I38
tp2058
a(I938
I74
tp2059
a(I1010
I74
tp2060
as(I938
I74
tp2061
(lp2062
(I974
I38
tp2063
a(I902
I38
tp2064
a(I938
I38
tp2065
a(I902
I74
tp2066
a(I974
I74
tp2067
as(I362
I722
tp2068
(lp2069
(I326
I758
tp2070
a(I398
I686
tp2071
a(I326
I686
tp2072
a(I398
I758
tp2073
a(I362
I686
tp2074
a(I326
I722
tp2075
a(I362
I758
tp2076
a(I398
I722
tp2077
as(I722
I758
tp2078
(lp2079
(I758
I722
tp2080
a(I686
I722
tp2081
a(I722
I722
tp2082
a(I686
I758
tp2083
a(I758
I758
tp2084
as(I758
I38
tp2085
(lp2086
(I722
I74
tp2087
a(I794
I2
tp2088
a(I722
I2
tp2089
a(I794
I74
tp2090
a(I758
I2
tp2091
a(I722
I38
tp2092
a(I758
I74
tp2093
a(I794
I38
tp2094
as(I218
I722
tp2095
(lp2096
(I182
I758
tp2097
a(I254
I686
tp2098
a(I254
I758
tp2099
a(I182
I722
tp2100
a(I218
I758
tp2101
a(I254
I722
tp2102
as(I182
I74
tp2103
(lp2104
(I218
I38
tp2105
a(I146
I38
tp2106
a(I218
I110
tp2107
a(I182
I38
tp2108
a(I218
I74
tp2109
as(I650
I650
tp2110
(lp2111
(I614
I686
tp2112
a(I686
I614
tp2113
a(I614
I614
tp2114
a(I686
I686
tp2115
a(I650
I614
tp2116
a(I614
I650
tp2117
a(I650
I686
tp2118
a(I686
I650
tp2119
as(I398
I650
tp2120
(lp2121
(I362
I686
tp2122
a(I434
I614
tp2123
a(I362
I614
tp2124
a(I398
I614
tp2125
a(I362
I650
tp2126
a(I398
I686
tp2127
a(I434
I650
tp2128
as(I902
I2
tp2129
(lp2130
(I866
I38
tp2131
a(I938
I38
tp2132
a(I866
I2
tp2133
a(I902
I38
tp2134
a(I938
I2
tp2135
as(I722
I38
tp2136
(lp2137
(I686
I74
tp2138
a(I758
I2
tp2139
a(I686
I2
tp2140
a(I758
I74
tp2141
a(I722
I2
tp2142
a(I686
I38
tp2143
a(I722
I74
tp2144
a(I758
I38
tp2145
as(I722
I362
tp2146
(lp2147
(I686
I398
tp2148
a(I758
I326
tp2149
a(I758
I398
tp2150
a(I722
I326
tp2151
a(I686
I362
tp2152
a(I722
I398
tp2153
a(I758
I362
tp2154
as(I326
I110
tp2155
(lp2156
(I290
I146
tp2157
a(I362
I74
tp2158
a(I290
I74
tp2159
a(I362
I146
tp2160
a(I326
I74
tp2161
a(I290
I110
tp2162
a(I326
I146
tp2163
a(I362
I110
tp2164
as(I974
I650
tp2165
(lp2166
(I938
I686
tp2167
a(I1010
I614
tp2168
a(I938
I614
tp2169
a(I1010
I686
tp2170
a(I974
I614
tp2171
a(I938
I650
tp2172
a(I974
I686
tp2173
a(I1010
I650
tp2174
as(I974
I326
tp2175
(lp2176
(I938
I362
tp2177
a(I1010
I290
tp2178
a(I1010
I362
tp2179
a(I938
I326
tp2180
a(I974
I362
tp2181
a(I1010
I326
tp2182
as(I758
I398
tp2183
(lp2184
(I722
I434
tp2185
a(I794
I362
tp2186
a(I722
I362
tp2187
a(I758
I362
tp2188
a(I722
I398
tp2189
a(I794
I398
tp2190
as(I938
I542
tp2191
(lp2192
(I974
I506
tp2193
a(I974
I578
tp2194
a(I938
I506
tp2195
a(I938
I578
tp2196
a(I974
I542
tp2197
as(I110
I398
tp2198
(lp2199
(I74
I434
tp2200
a(I146
I362
tp2201
a(I74
I362
tp2202
a(I146
I434
tp2203
a(I110
I362
tp2204
a(I74
I398
tp2205
a(I110
I434
tp2206
a(I146
I398
tp2207
as(I1010
I470
tp2208
(lp2209
(I974
I506
tp2210
a(I974
I434
tp2211
a(I1010
I434
tp2212
a(I974
I470
tp2213
a(I1010
I506
tp2214
as(I830
I290
tp2215
(lp2216
(I794
I326
tp2217
a(I866
I254
tp2218
a(I794
I254
tp2219
a(I866
I326
tp2220
a(I830
I254
tp2221
a(I794
I290
tp2222
a(I830
I326
tp2223
a(I866
I290
tp2224
as(I866
I650
tp2225
(lp2226
(I830
I686
tp2227
a(I902
I686
tp2228
a(I830
I650
tp2229
a(I866
I686
tp2230
a(I902
I650
tp2231
as(I434
I38
tp2232
(lp2233
(I398
I74
tp2234
a(I470
I2
tp2235
a(I398
I2
tp2236
a(I470
I74
tp2237
a(I434
I2
tp2238
a(I398
I38
tp2239
a(I434
I74
tp2240
a(I470
I38
tp2241
as(I866
I290
tp2242
(lp2243
(I830
I326
tp2244
a(I830
I254
tp2245
a(I902
I326
tp2246
a(I866
I254
tp2247
a(I830
I290
tp2248
a(I866
I326
tp2249
a(I902
I290
tp2250
as(I110
I2
tp2251
(lp2252
(I74
I38
tp2253
a(I146
I38
tp2254
a(I74
I2
tp2255
a(I110
I38
tp2256
a(I146
I2
tp2257
as(I434
I182
tp2258
(lp2259
(I398
I218
tp2260
a(I470
I146
tp2261
a(I398
I146
tp2262
a(I470
I218
tp2263
a(I434
I146
tp2264
a(I398
I182
tp2265
a(I434
I218
tp2266
a(I470
I182
tp2267
as(I902
I326
tp2268
(lp2269
(I866
I362
tp2270
a(I866
I290
tp2271
a(I938
I362
tp2272
a(I902
I290
tp2273
a(I866
I326
tp2274
a(I938
I326
tp2275
as(I974
I434
tp2276
(lp2277
(I938
I470
tp2278
a(I1010
I398
tp2279
a(I938
I398
tp2280
a(I1010
I470
tp2281
a(I974
I398
tp2282
a(I938
I434
tp2283
a(I974
I470
tp2284
a(I1010
I434
tp2285
as(I650
I110
tp2286
(lp2287
(I686
I74
tp2288
a(I614
I74
tp2289
a(I650
I74
tp2290
a(I614
I110
tp2291
a(I686
I110
tp2292
as(I794
I110
tp2293
(lp2294
(I830
I74
tp2295
a(I758
I74
tp2296
a(I830
I146
tp2297
a(I794
I74
tp2298
a(I758
I110
tp2299
a(I794
I146
tp2300
as(I902
I758
tp2301
(lp2302
(I938
I722
tp2303
a(I866
I722
tp2304
a(I902
I722
tp2305
a(I866
I758
tp2306
a(I938
I758
tp2307
as(I2
I218
tp2308
(lp2309
(I38
I182
tp2310
a(I38
I254
tp2311
a(I2
I182
tp2312
a(I2
I254
tp2313
a(I38
I218
tp2314
as(I686
I2
tp2315
(lp2316
(I650
I38
tp2317
a(I722
I38
tp2318
a(I650
I2
tp2319
a(I686
I38
tp2320
a(I722
I2
tp2321
as(I542
I110
tp2322
(lp2323
(I506
I146
tp2324
a(I578
I74
tp2325
a(I506
I74
tp2326
a(I542
I74
tp2327
a(I506
I110
tp2328
a(I578
I110
tp2329
as(I686
I434
tp2330
(lp2331
(I650
I470
tp2332
a(I722
I398
tp2333
a(I650
I398
tp2334
a(I686
I398
tp2335
a(I650
I434
tp2336
a(I686
I470
tp2337
a(I722
I434
tp2338
as(I1010
I38
tp2339
(lp2340
(I974
I74
tp2341
a(I974
I2
tp2342
a(I1010
I2
tp2343
a(I974
I38
tp2344
a(I1010
I74
tp2345
as(I254
I362
tp2346
(lp2347
(I218
I398
tp2348
a(I290
I398
tp2349
a(I218
I362
tp2350
a(I254
I398
tp2351
as(I794
I650
tp2352
(lp2353
(I758
I686
tp2354
a(I830
I686
tp2355
a(I758
I650
tp2356
a(I794
I686
tp2357
a(I830
I650
tp2358
as(I362
I182
tp2359
(lp2360
(I398
I146
tp2361
a(I326
I146
tp2362
a(I398
I218
tp2363
a(I362
I146
tp2364
a(I398
I182
tp2365
as(I110
I362
tp2366
(lp2367
(I74
I398
tp2368
a(I146
I326
tp2369
a(I74
I326
tp2370
a(I146
I398
tp2371
a(I110
I326
tp2372
a(I74
I362
tp2373
a(I110
I398
tp2374
a(I146
I362
tp2375
as(I38
I290
tp2376
(lp2377
(I2
I326
tp2378
a(I2
I254
tp2379
a(I74
I326
tp2380
a(I38
I254
tp2381
a(I2
I290
tp2382
a(I38
I326
tp2383
a(I74
I290
tp2384
as(I254
I110
tp2385
(lp2386
(I218
I146
tp2387
a(I290
I74
tp2388
a(I218
I74
tp2389
a(I290
I146
tp2390
a(I254
I74
tp2391
a(I218
I110
tp2392
a(I254
I146
tp2393
a(I290
I110
tp2394
as(I650
I686
tp2395
(lp2396
(I614
I722
tp2397
a(I686
I650
tp2398
a(I614
I650
tp2399
a(I686
I722
tp2400
a(I650
I650
tp2401
a(I614
I686
tp2402
a(I650
I722
tp2403
a(I686
I686
tp2404
as(I2
I290
tp2405
(lp2406
(I38
I254
tp2407
a(I38
I326
tp2408
a(I2
I254
tp2409
a(I2
I326
tp2410
a(I38
I290
tp2411
as(I398
I38
tp2412
(lp2413
(I362
I74
tp2414
a(I434
I2
tp2415
a(I362
I2
tp2416
a(I434
I74
tp2417
a(I398
I2
tp2418
a(I362
I38
tp2419
a(I398
I74
tp2420
a(I434
I38
tp2421
as(I290
I110
tp2422
(lp2423
(I254
I146
tp2424
a(I326
I74
tp2425
a(I254
I74
tp2426
a(I326
I146
tp2427
a(I290
I74
tp2428
a(I254
I110
tp2429
a(I290
I146
tp2430
a(I326
I110
tp2431
as(I290
I146
tp2432
(lp2433
(I326
I110
tp2434
a(I254
I110
tp2435
a(I290
I110
tp2436
a(I254
I146
tp2437
a(I326
I146
tp2438
as(I470
I758
tp2439
(lp2440
(I506
I722
tp2441
a(I434
I722
tp2442
a(I470
I722
tp2443
a(I434
I758
tp2444
a(I506
I758
tp2445
as(I614
I542
tp2446
(lp2447
(I578
I578
tp2448
a(I578
I506
tp2449
a(I650
I578
tp2450
a(I614
I506
tp2451
a(I578
I542
tp2452
a(I614
I578
tp2453
as(I434
I326
tp2454
(lp2455
(I398
I362
tp2456
a(I398
I290
tp2457
a(I470
I362
tp2458
a(I434
I290
tp2459
a(I398
I326
tp2460
a(I434
I362
tp2461
a(I470
I326
tp2462
as(I686
I578
tp2463
(lp2464
(I650
I614
tp2465
a(I722
I614
tp2466
a(I650
I578
tp2467
a(I686
I614
tp2468
as(I866
I218
tp2469
(lp2470
(I830
I254
tp2471
a(I830
I182
tp2472
a(I830
I218
tp2473
a(I866
I254
tp2474
a(I902
I218
tp2475
as(I38
I38
tp2476
(lp2477
(I2
I74
tp2478
a(I74
I2
tp2479
a(I2
I2
tp2480
a(I74
I74
tp2481
a(I38
I2
tp2482
a(I2
I38
tp2483
a(I38
I74
tp2484
a(I74
I38
tp2485
as(I362
I38
tp2486
(lp2487
(I326
I74
tp2488
a(I398
I2
tp2489
a(I326
I2
tp2490
a(I398
I74
tp2491
a(I362
I2
tp2492
a(I326
I38
tp2493
a(I362
I74
tp2494
a(I398
I38
tp2495
as(I686
I650
tp2496
(lp2497
(I650
I686
tp2498
a(I722
I614
tp2499
a(I650
I614
tp2500
a(I722
I686
tp2501
a(I686
I614
tp2502
a(I650
I650
tp2503
a(I686
I686
tp2504
a(I722
I650
tp2505
as(I974
I578
tp2506
(lp2507
(I938
I614
tp2508
a(I1010
I542
tp2509
a(I938
I542
tp2510
a(I1010
I614
tp2511
a(I974
I542
tp2512
a(I938
I578
tp2513
a(I974
I614
tp2514
a(I1010
I578
tp2515
as(I614
I110
tp2516
(lp2517
(I650
I74
tp2518
a(I578
I74
tp2519
a(I614
I74
tp2520
a(I578
I110
tp2521
a(I650
I110
tp2522
as(I74
I182
tp2523
(lp2524
(I38
I218
tp2525
a(I38
I146
tp2526
a(I74
I146
tp2527
a(I38
I182
tp2528
as(I470
I2
tp2529
(lp2530
(I434
I38
tp2531
a(I506
I38
tp2532
a(I434
I2
tp2533
a(I470
I38
tp2534
a(I506
I2
tp2535
as(I1010
I578
tp2536
(lp2537
(I974
I614
tp2538
a(I974
I542
tp2539
a(I1010
I542
tp2540
a(I974
I578
tp2541
a(I1010
I614
tp2542
as(I2
I542
tp2543
(lp2544
(I38
I506
tp2545
a(I2
I506
tp2546
a(I2
I578
tp2547
a(I38
I542
tp2548
as(I902
I38
tp2549
(lp2550
(I866
I74
tp2551
a(I938
I2
tp2552
a(I866
I2
tp2553
a(I938
I74
tp2554
a(I902
I2
tp2555
a(I866
I38
tp2556
a(I902
I74
tp2557
a(I938
I38
tp2558
as(I506
I2
tp2559
(lp2560
(I470
I38
tp2561
a(I542
I38
tp2562
a(I470
I2
tp2563
a(I506
I38
tp2564
a(I542
I2
tp2565
as(I758
I362
tp2566
(lp2567
(I722
I398
tp2568
a(I794
I326
tp2569
a(I722
I326
tp2570
a(I794
I398
tp2571
a(I758
I326
tp2572
a(I722
I362
tp2573
a(I758
I398
tp2574
a(I794
I362
tp2575
as(I542
I542
tp2576
(lp2577
(I506
I578
tp2578
a(I578
I506
tp2579
a(I506
I506
tp2580
a(I578
I578
tp2581
a(I542
I506
tp2582
a(I506
I542
tp2583
a(I578
I542
tp2584
as(I830
I722
tp2585
(lp2586
(I794
I758
tp2587
a(I866
I686
tp2588
a(I794
I686
tp2589
a(I866
I758
tp2590
a(I830
I686
tp2591
a(I794
I722
tp2592
a(I830
I758
tp2593
a(I866
I722
tp2594
as(I614
I398
tp2595
(lp2596
(I578
I434
tp2597
a(I578
I362
tp2598
a(I650
I434
tp2599
a(I578
I398
tp2600
a(I614
I434
tp2601
a(I650
I398
tp2602
as(I758
I2
tp2603
(lp2604
(I722
I38
tp2605
a(I794
I38
tp2606
a(I722
I2
tp2607
a(I758
I38
tp2608
a(I794
I2
tp2609
as(I398
I182
tp2610
(lp2611
(I434
I146
tp2612
a(I362
I146
tp2613
a(I434
I218
tp2614
a(I398
I146
tp2615
a(I362
I182
tp2616
a(I398
I218
tp2617
a(I434
I182
tp2618
as(I506
I470
tp2619
(lp2620
(I470
I506
tp2621
a(I542
I434
tp2622
a(I470
I434
tp2623
a(I542
I506
tp2624
a(I506
I434
tp2625
a(I470
I470
tp2626
a(I506
I506
tp2627
a(I542
I470
tp2628
as(I938
I398
tp2629
(lp2630
(I974
I362
tp2631
a(I974
I434
tp2632
a(I938
I362
tp2633
a(I938
I434
tp2634
a(I974
I398
tp2635
as(I38
I470
tp2636
(lp2637
(I2
I506
tp2638
a(I74
I434
tp2639
a(I2
I434
tp2640
a(I74
I506
tp2641
a(I38
I434
tp2642
a(I2
I470
tp2643
a(I38
I506
tp2644
a(I74
I470
tp2645
as(I398
I614
tp2646
(lp2647
(I362
I650
tp2648
a(I434
I578
tp2649
a(I434
I650
tp2650
a(I362
I614
tp2651
a(I398
I650
tp2652
a(I434
I614
tp2653
as(I2
I326
tp2654
(lp2655
(I38
I290
tp2656
a(I38
I362
tp2657
a(I2
I290
tp2658
a(I2
I362
tp2659
a(I38
I326
tp2660
as(I974
I362
tp2661
(lp2662
(I938
I398
tp2663
a(I1010
I326
tp2664
a(I938
I326
tp2665
a(I1010
I398
tp2666
a(I974
I326
tp2667
a(I938
I362
tp2668
a(I974
I398
tp2669
a(I1010
I362
tp2670
as(I470
I182
tp2671
(lp2672
(I434
I218
tp2673
a(I506
I146
tp2674
a(I434
I146
tp2675
a(I470
I146
tp2676
a(I434
I182
tp2677
a(I470
I218
tp2678
a(I506
I182
tp2679
as(I542
I758
tp2680
(lp2681
(I506
I722
tp2682
a(I506
I758
tp2683
a(I578
I758
tp2684
as(I362
I686
tp2685
(lp2686
(I326
I722
tp2687
a(I398
I650
tp2688
a(I326
I650
tp2689
a(I398
I722
tp2690
a(I362
I650
tp2691
a(I326
I686
tp2692
a(I362
I722
tp2693
a(I398
I686
tp2694
as(I2
I2
tp2695
(lp2696
(I2
I2
tp2697
a(I38
I38
tp2698
a(I2
I38
tp2699
a(I38
I2
tp2700
as(I614
I686
tp2701
(lp2702
(I650
I650
tp2703
a(I650
I722
tp2704
a(I614
I650
tp2705
a(I614
I722
tp2706
a(I650
I686
tp2707
as(I506
I146
tp2708
(lp2709
(I470
I182
tp2710
a(I542
I110
tp2711
a(I470
I110
tp2712
a(I506
I110
tp2713
a(I470
I146
tp2714
a(I506
I182
tp2715
as(I254
I2
tp2716
(lp2717
(I218
I38
tp2718
a(I290
I38
tp2719
a(I218
I2
tp2720
a(I254
I38
tp2721
a(I290
I2
tp2722
as(I290
I434
tp2723
(lp2724
(I326
I398
tp2725
a(I254
I398
tp2726
a(I290
I398
tp2727
a(I254
I434
tp2728
a(I326
I434
tp2729
as(I650
I434
tp2730
(lp2731
(I614
I470
tp2732
a(I686
I398
tp2733
a(I614
I398
tp2734
a(I686
I470
tp2735
a(I650
I398
tp2736
a(I614
I434
tp2737
a(I650
I470
tp2738
a(I686
I434
tp2739
as(I866
I686
tp2740
(lp2741
(I830
I722
tp2742
a(I902
I650
tp2743
a(I830
I650
tp2744
a(I902
I722
tp2745
a(I866
I650
tp2746
a(I830
I686
tp2747
a(I866
I722
tp2748
a(I902
I686
tp2749
as(I74
I290
tp2750
(lp2751
(I38
I326
tp2752
a(I38
I254
tp2753
a(I110
I326
tp2754
a(I38
I290
tp2755
a(I74
I326
tp2756
a(I110
I290
tp2757
as(I758
I758
tp2758
(lp2759
(I794
I722
tp2760
a(I722
I722
tp2761
a(I758
I722
tp2762
a(I722
I758
tp2763
a(I794
I758
tp2764
as(I650
I74
tp2765
(lp2766
(I614
I110
tp2767
a(I686
I38
tp2768
a(I614
I38
tp2769
a(I686
I110
tp2770
a(I650
I38
tp2771
a(I614
I74
tp2772
a(I650
I110
tp2773
a(I686
I74
tp2774
as(I794
I290
tp2775
(lp2776
(I758
I326
tp2777
a(I830
I254
tp2778
a(I830
I326
tp2779
a(I794
I254
tp2780
a(I758
I290
tp2781
a(I794
I326
tp2782
a(I830
I290
tp2783
as(I794
I254
tp2784
(lp2785
(I758
I290
tp2786
a(I830
I218
tp2787
a(I830
I290
tp2788
a(I794
I290
tp2789
a(I830
I254
tp2790
as(I974
I398
tp2791
(lp2792
(I938
I434
tp2793
a(I1010
I362
tp2794
a(I938
I362
tp2795
a(I1010
I434
tp2796
a(I974
I362
tp2797
a(I938
I398
tp2798
a(I974
I434
tp2799
a(I1010
I398
tp2800
as(I1010
I182
tp2801
(lp2802
(I1010
I146
tp2803
a(I1010
I218
tp2804
as(I830
I2
tp2805
(lp2806
(I794
I38
tp2807
a(I866
I38
tp2808
a(I794
I2
tp2809
a(I830
I38
tp2810
a(I866
I2
tp2811
as(I542
I74
tp2812
(lp2813
(I506
I110
tp2814
a(I578
I38
tp2815
a(I506
I38
tp2816
a(I578
I110
tp2817
a(I542
I38
tp2818
a(I506
I74
tp2819
a(I542
I110
tp2820
a(I578
I74
tp2821
as(I866
I2
tp2822
(lp2823
(I830
I38
tp2824
a(I902
I38
tp2825
a(I830
I2
tp2826
a(I866
I38
tp2827
a(I902
I2
tp2828
as(I254
I434
tp2829
(lp2830
(I290
I398
tp2831
a(I218
I398
tp2832
a(I254
I398
tp2833
a(I218
I434
tp2834
a(I290
I434
tp2835
as(I326
I2
tp2836
(lp2837
(I290
I38
tp2838
a(I362
I38
tp2839
a(I290
I2
tp2840
a(I326
I38
tp2841
a(I362
I2
tp2842
as(I830
I686
tp2843
(lp2844
(I794
I722
tp2845
a(I866
I650
tp2846
a(I794
I650
tp2847
a(I866
I722
tp2848
a(I830
I650
tp2849
a(I794
I686
tp2850
a(I830
I722
tp2851
a(I866
I686
tp2852
as(I686
I110
tp2853
(lp2854
(I722
I74
tp2855
a(I650
I74
tp2856
a(I686
I74
tp2857
a(I650
I110
tp2858
a(I722
I110
tp2859
as(I578
I110
tp2860
(lp2861
(I614
I74
tp2862
a(I542
I74
tp2863
a(I578
I74
tp2864
a(I542
I110
tp2865
a(I614
I110
tp2866
as(I686
I722
tp2867
(lp2868
(I650
I758
tp2869
a(I722
I686
tp2870
a(I650
I686
tp2871
a(I722
I758
tp2872
a(I686
I686
tp2873
a(I650
I722
tp2874
a(I686
I758
tp2875
a(I722
I722
tp2876
as(I254
I686
tp2877
(lp2878
(I218
I722
tp2879
a(I290
I650
tp2880
a(I290
I722
tp2881
a(I254
I722
tp2882
a(I290
I686
tp2883
as(I218
I758
tp2884
(lp2885
(I254
I722
tp2886
a(I182
I722
tp2887
a(I218
I722
tp2888
a(I182
I758
tp2889
a(I254
I758
tp2890
as(I722
I434
tp2891
(lp2892
(I686
I470
tp2893
a(I758
I398
tp2894
a(I686
I398
tp2895
a(I722
I398
tp2896
a(I686
I434
tp2897
as(I38
I146
tp2898
(lp2899
(I2
I182
tp2900
a(I74
I110
tp2901
a(I2
I110
tp2902
a(I74
I182
tp2903
a(I38
I110
tp2904
a(I2
I146
tp2905
a(I38
I182
tp2906
a(I74
I146
tp2907
as(I794
I398
tp2908
(lp2909
(I830
I362
tp2910
a(I758
I362
tp2911
a(I794
I362
tp2912
a(I758
I398
tp2913
as(I434
I722
tp2914
(lp2915
(I398
I758
tp2916
a(I398
I686
tp2917
a(I470
I758
tp2918
a(I398
I722
tp2919
a(I434
I758
tp2920
a(I470
I722
tp2921
as(I794
I326
tp2922
(lp2923
(I758
I362
tp2924
a(I830
I290
tp2925
a(I758
I290
tp2926
a(I830
I362
tp2927
a(I794
I290
tp2928
a(I758
I326
tp2929
a(I794
I362
tp2930
a(I830
I326
tp2931
as(I434
I362
tp2932
(lp2933
(I470
I326
tp2934
a(I398
I326
tp2935
a(I470
I398
tp2936
a(I434
I326
tp2937
a(I398
I362
tp2938
a(I434
I398
tp2939
a(I470
I362
tp2940
as(I110
I74
tp2941
(lp2942
(I74
I110
tp2943
a(I146
I38
tp2944
a(I74
I38
tp2945
a(I110
I38
tp2946
a(I74
I74
tp2947
a(I110
I110
tp2948
as(I290
I722
tp2949
(lp2950
(I254
I758
tp2951
a(I326
I686
tp2952
a(I254
I686
tp2953
a(I326
I758
tp2954
a(I290
I686
tp2955
a(I254
I722
tp2956
a(I290
I758
tp2957
a(I326
I722
tp2958
as(I2
I614
tp2959
(lp2960
(I2
I578
tp2961
a(I2
I650
tp2962
as(I866
I254
tp2963
(lp2964
(I830
I290
tp2965
a(I902
I218
tp2966
a(I830
I218
tp2967
a(I902
I290
tp2968
a(I866
I218
tp2969
a(I830
I254
tp2970
a(I866
I290
tp2971
as(I110
I434
tp2972
(lp2973
(I74
I470
tp2974
a(I146
I398
tp2975
a(I74
I398
tp2976
a(I146
I470
tp2977
a(I110
I398
tp2978
a(I74
I434
tp2979
a(I110
I470
tp2980
a(I146
I434
tp2981
as(I650
I398
tp2982
(lp2983
(I614
I434
tp2984
a(I686
I362
tp2985
a(I686
I434
tp2986
a(I614
I398
tp2987
a(I650
I434
tp2988
a(I686
I398
tp2989
as(I830
I254
tp2990
(lp2991
(I794
I290
tp2992
a(I866
I218
tp2993
a(I866
I290
tp2994
a(I830
I218
tp2995
a(I794
I254
tp2996
a(I830
I290
tp2997
a(I866
I254
tp2998
as(I794
I38
tp2999
(lp3000
(I758
I74
tp3001
a(I830
I2
tp3002
a(I758
I2
tp3003
a(I830
I74
tp3004
a(I794
I2
tp3005
a(I758
I38
tp3006
a(I794
I74
tp3007
a(I830
I38
tp3008
as(I398
I722
tp3009
(lp3010
(I362
I758
tp3011
a(I362
I686
tp3012
a(I434
I758
tp3013
a(I398
I686
tp3014
a(I362
I722
tp3015
a(I398
I758
tp3016
a(I434
I722
tp3017
as(I362
I614
tp3018
(lp3019
(I326
I650
tp3020
a(I398
I650
tp3021
a(I326
I614
tp3022
a(I362
I650
tp3023
a(I398
I614
tp3024
as(I830
I326
tp3025
(lp3026
(I794
I362
tp3027
a(I866
I290
tp3028
a(I794
I290
tp3029
a(I866
I362
tp3030
a(I830
I290
tp3031
a(I794
I326
tp3032
a(I830
I362
tp3033
a(I866
I326
tp3034
as(I1010
I614
tp3035
(lp3036
(I974
I650
tp3037
a(I974
I578
tp3038
a(I1010
I578
tp3039
a(I974
I614
tp3040
a(I1010
I650
tp3041
as(I974
I686
tp3042
(lp3043
(I938
I722
tp3044
a(I1010
I650
tp3045
a(I938
I650
tp3046
a(I1010
I722
tp3047
a(I974
I650
tp3048
a(I938
I686
tp3049
a(I974
I722
tp3050
a(I1010
I686
tp3051
as(I506
I38
tp3052
(lp3053
(I470
I74
tp3054
a(I542
I2
tp3055
a(I470
I2
tp3056
a(I542
I74
tp3057
a(I506
I2
tp3058
a(I470
I38
tp3059
a(I506
I74
tp3060
a(I542
I38
tp3061
as(I938
I2
tp3062
(lp3063
(I902
I38
tp3064
a(I974
I38
tp3065
a(I902
I2
tp3066
a(I938
I38
tp3067
a(I974
I2
tp3068
as(I614
I506
tp3069
(lp3070
(I578
I542
tp3071
a(I650
I470
tp3072
a(I578
I470
tp3073
a(I614
I470
tp3074
a(I578
I506
tp3075
a(I614
I542
tp3076
as(I434
I578
tp3077
(lp3078
(I398
I614
tp3079
a(I470
I542
tp3080
a(I470
I614
tp3081
a(I434
I614
tp3082
a(I470
I578
tp3083
as(I758
I110
tp3084
(lp3085
(I794
I74
tp3086
a(I722
I74
tp3087
a(I794
I146
tp3088
a(I758
I74
tp3089
a(I722
I110
tp3090
a(I794
I110
tp3091
as(I2
I182
tp3092
(lp3093
(I38
I146
tp3094
a(I38
I218
tp3095
a(I2
I146
tp3096
a(I2
I218
tp3097
a(I38
I182
tp3098
as(I794
I2
tp3099
(lp3100
(I758
I38
tp3101
a(I830
I38
tp3102
a(I758
I2
tp3103
a(I794
I38
tp3104
a(I830
I2
tp3105
as(I74
I506
tp3106
(lp3107
(I38
I542
tp3108
a(I110
I470
tp3109
a(I38
I470
tp3110
a(I74
I470
tp3111
a(I38
I506
tp3112
a(I110
I506
tp3113
as(I1010
I290
tp3114
(lp3115
(I974
I326
tp3116
a(I1010
I254
tp3117
a(I1010
I326
tp3118
as(I2
I254
tp3119
(lp3120
(I38
I218
tp3121
a(I38
I290
tp3122
a(I2
I218
tp3123
a(I2
I290
tp3124
a(I38
I254
tp3125
as(I254
I758
tp3126
(lp3127
(I290
I722
tp3128
a(I218
I722
tp3129
a(I254
I722
tp3130
a(I218
I758
tp3131
a(I290
I758
tp3132
as(I686
I398
tp3133
(lp3134
(I650
I434
tp3135
a(I722
I362
tp3136
a(I722
I434
tp3137
a(I686
I362
tp3138
a(I650
I398
tp3139
a(I686
I434
tp3140
a(I722
I398
tp3141
as(I578
I74
tp3142
(lp3143
(I542
I110
tp3144
a(I614
I38
tp3145
a(I542
I38
tp3146
a(I614
I110
tp3147
a(I578
I38
tp3148
a(I542
I74
tp3149
a(I578
I110
tp3150
a(I614
I74
tp3151
as(I398
I758
tp3152
(lp3153
(I434
I722
tp3154
a(I362
I722
tp3155
a(I398
I722
tp3156
a(I362
I758
tp3157
a(I434
I758
tp3158
as(I794
I686
tp3159
(lp3160
(I758
I722
tp3161
a(I830
I650
tp3162
a(I758
I650
tp3163
a(I830
I722
tp3164
a(I794
I650
tp3165
a(I758
I686
tp3166
a(I794
I722
tp3167
a(I830
I686
tp3168
as(I326
I650
tp3169
(lp3170
(I290
I686
tp3171
a(I362
I614
tp3172
a(I362
I686
tp3173
a(I326
I614
tp3174
a(I290
I650
tp3175
a(I326
I686
tp3176
a(I362
I650
tp3177
as(I722
I650
tp3178
(lp3179
(I686
I686
tp3180
a(I686
I614
tp3181
a(I758
I686
tp3182
a(I722
I614
tp3183
a(I686
I650
tp3184
a(I722
I686
tp3185
a(I758
I650
tp3186
as(I974
I38
tp3187
(lp3188
(I938
I74
tp3189
a(I1010
I2
tp3190
a(I938
I2
tp3191
a(I1010
I74
tp3192
a(I974
I2
tp3193
a(I938
I38
tp3194
a(I974
I74
tp3195
a(I1010
I38
tp3196
as(I326
I38
tp3197
(lp3198
(I290
I74
tp3199
a(I362
I2
tp3200
a(I290
I2
tp3201
a(I362
I74
tp3202
a(I326
I2
tp3203
a(I290
I38
tp3204
a(I326
I74
tp3205
a(I362
I38
tp3206
as(I254
I74
tp3207
(lp3208
(I218
I110
tp3209
a(I290
I38
tp3210
a(I218
I38
tp3211
a(I290
I110
tp3212
a(I254
I38
tp3213
a(I218
I74
tp3214
a(I254
I110
tp3215
a(I290
I74
tp3216
as(I218
I74
tp3217
(lp3218
(I254
I38
tp3219
a(I182
I38
tp3220
a(I254
I110
tp3221
a(I218
I38
tp3222
a(I182
I74
tp3223
a(I218
I110
tp3224
a(I254
I74
tp3225
as(I686
I470
tp3226
(lp3227
(I722
I434
tp3228
a(I650
I434
tp3229
a(I686
I434
tp3230
a(I650
I470
tp3231
as(I938
I434
tp3232
(lp3233
(I974
I398
tp3234
a(I974
I470
tp3235
a(I938
I398
tp3236
a(I938
I470
tp3237
a(I974
I434
tp3238
as(I1010
I506
tp3239
(lp3240
(I974
I542
tp3241
a(I974
I470
tp3242
a(I1010
I470
tp3243
a(I974
I506
tp3244
a(I1010
I542
tp3245
as.