(dp0
(I702
I247
tp1
(lp2
(I667
I282
tp3
a(I737
I212
tp4
a(I667
I212
tp5
a(I737
I282
tp6
a(I702
I212
tp7
a(I667
I247
tp8
a(I702
I282
tp9
a(I737
I247
tp10
as(I492
I492
tp11
(lp12
(I457
I527
tp13
a(I527
I527
tp14
a(I457
I492
tp15
a(I492
I527
tp16
a(I527
I492
tp17
as(I2
I352
tp18
(lp19
(I37
I317
tp20
a(I37
I387
tp21
a(I2
I317
tp22
a(I2
I387
tp23
a(I37
I352
tp24
as(I37
I667
tp25
(lp26
(I2
I702
tp27
a(I72
I632
tp28
a(I2
I632
tp29
a(I72
I702
tp30
a(I37
I632
tp31
a(I2
I667
tp32
a(I37
I702
tp33
a(I72
I667
tp34
as(I632
I527
tp35
(lp36
(I597
I562
tp37
a(I667
I492
tp38
a(I597
I492
tp39
a(I667
I562
tp40
a(I632
I492
tp41
a(I597
I527
tp42
a(I632
I562
tp43
a(I667
I527
tp44
as(I142
I422
tp45
(lp46
(I107
I457
tp47
a(I177
I387
tp48
a(I107
I387
tp49
a(I177
I457
tp50
a(I142
I387
tp51
a(I107
I422
tp52
a(I142
I457
tp53
a(I177
I422
tp54
as(I772
I492
tp55
(lp56
(I737
I527
tp57
a(I807
I457
tp58
a(I807
I527
tp59
a(I737
I492
tp60
a(I772
I527
tp61
a(I807
I492
tp62
as(I807
I177
tp63
(lp64
(I772
I212
tp65
a(I842
I142
tp66
a(I772
I142
tp67
a(I842
I212
tp68
a(I807
I142
tp69
a(I772
I177
tp70
a(I807
I212
tp71
a(I842
I177
tp72
as(I212
I37
tp73
(lp74
(I247
I2
tp75
a(I177
I2
tp76
a(I212
I2
tp77
a(I177
I37
tp78
a(I247
I37
tp79
as(I1017
I72
tp80
(lp81
(I982
I37
tp82
a(I1017
I37
tp83
a(I1017
I107
tp84
as(I842
I37
tp85
(lp86
(I877
I2
tp87
a(I807
I2
tp88
a(I842
I2
tp89
a(I807
I37
tp90
a(I877
I37
tp91
as(I912
I37
tp92
(lp93
(I947
I2
tp94
a(I877
I2
tp95
a(I912
I2
tp96
a(I877
I37
tp97
a(I947
I37
tp98
as(I912
I457
tp99
(lp100
(I877
I492
tp101
a(I947
I422
tp102
a(I877
I422
tp103
a(I912
I422
tp104
a(I877
I457
tp105
a(I947
I457
tp106
as(I632
I492
tp107
(lp108
(I597
I527
tp109
a(I667
I457
tp110
a(I597
I457
tp111
a(I667
I527
tp112
a(I632
I457
tp113
a(I597
I492
tp114
a(I632
I527
tp115
a(I667
I492
tp116
as(I212
I352
tp117
(lp118
(I177
I387
tp119
a(I247
I387
tp120
a(I177
I352
tp121
a(I212
I387
tp122
a(I247
I352
tp123
as(I457
I107
tp124
(lp125
(I422
I142
tp126
a(I492
I72
tp127
a(I422
I72
tp128
a(I492
I142
tp129
a(I457
I72
tp130
a(I422
I107
tp131
a(I457
I142
tp132
a(I492
I107
tp133
as(I772
I2
tp134
(lp135
(I737
I37
tp136
a(I807
I37
tp137
a(I737
I2
tp138
a(I772
I37
tp139
a(I807
I2
tp140
as(I842
I317
tp141
(lp142
(I807
I352
tp143
a(I877
I282
tp144
a(I807
I282
tp145
a(I877
I352
tp146
a(I842
I282
tp147
a(I807
I317
tp148
a(I842
I352
tp149
a(I877
I317
tp150
as(I982
I2
tp151
(lp152
(I947
I37
tp153
a(I1017
I37
tp154
a(I947
I2
tp155
a(I982
I37
tp156
a(I1017
I2
tp157
as(I457
I527
tp158
(lp159
(I422
I562
tp160
a(I492
I492
tp161
a(I422
I492
tp162
a(I492
I562
tp163
a(I457
I492
tp164
a(I422
I527
tp165
a(I457
I562
tp166
a(I492
I527
tp167
as(I807
I422
tp168
(lp169
(I842
I387
tp170
a(I772
I387
tp171
a(I842
I457
tp172
a(I807
I387
tp173
a(I807
I457
tp174
a(I842
I422
tp175
as(I947
I2
tp176
(lp177
(I912
I37
tp178
a(I982
I37
tp179
a(I912
I2
tp180
a(I947
I37
tp181
a(I982
I2
tp182
as(I877
I317
tp183
(lp184
(I842
I352
tp185
a(I842
I282
tp186
a(I877
I282
tp187
a(I842
I317
tp188
a(I877
I352
tp189
as(I562
I107
tp190
(lp191
(I527
I142
tp192
a(I527
I72
tp193
a(I597
I142
tp194
a(I562
I72
tp195
a(I527
I107
tp196
a(I562
I142
tp197
as(I667
I387
tp198
(lp199
(I632
I422
tp200
a(I702
I352
tp201
a(I632
I352
tp202
a(I667
I352
tp203
a(I632
I387
tp204
a(I667
I422
tp205
as(I492
I2
tp206
(lp207
(I457
I37
tp208
a(I527
I37
tp209
a(I457
I2
tp210
a(I492
I37
tp211
a(I527
I2
tp212
as(I597
I282
tp213
(lp214
(I562
I317
tp215
a(I632
I247
tp216
a(I562
I247
tp217
a(I632
I317
tp218
a(I597
I247
tp219
a(I562
I282
tp220
a(I597
I317
tp221
a(I632
I282
tp222
as(I737
I142
tp223
(lp224
(I702
I177
tp225
a(I772
I177
tp226
a(I702
I142
tp227
a(I737
I177
tp228
a(I772
I142
tp229
as(I457
I177
tp230
(lp231
(I422
I212
tp232
a(I492
I142
tp233
a(I422
I142
tp234
a(I492
I212
tp235
a(I457
I142
tp236
a(I422
I177
tp237
a(I457
I212
tp238
a(I492
I177
tp239
as(I562
I212
tp240
(lp241
(I527
I247
tp242
a(I597
I177
tp243
a(I527
I177
tp244
a(I597
I247
tp245
a(I562
I177
tp246
a(I527
I212
tp247
a(I562
I247
tp248
a(I597
I212
tp249
as(I317
I422
tp250
(lp251
(I282
I457
tp252
a(I352
I387
tp253
a(I282
I387
tp254
a(I352
I457
tp255
a(I317
I387
tp256
a(I282
I422
tp257
a(I317
I457
tp258
a(I352
I422
tp259
as(I527
I597
tp260
(lp261
(I562
I562
tp262
a(I492
I562
tp263
a(I527
I562
tp264
a(I492
I597
tp265
a(I562
I597
tp266
as(I562
I282
tp267
(lp268
(I527
I317
tp269
a(I597
I247
tp270
a(I527
I247
tp271
a(I597
I317
tp272
a(I562
I247
tp273
a(I527
I282
tp274
a(I562
I317
tp275
a(I597
I282
tp276
as(I352
I177
tp277
(lp278
(I317
I212
tp279
a(I387
I212
tp280
a(I317
I177
tp281
a(I352
I212
tp282
a(I387
I177
tp283
as(I177
I387
tp284
(lp285
(I142
I422
tp286
a(I212
I352
tp287
a(I142
I352
tp288
a(I212
I422
tp289
a(I177
I352
tp290
a(I142
I387
tp291
a(I177
I422
tp292
a(I212
I387
tp293
as(I807
I527
tp294
(lp295
(I772
I562
tp296
a(I842
I492
tp297
a(I772
I492
tp298
a(I807
I492
tp299
a(I772
I527
tp300
a(I807
I562
tp301
a(I842
I527
tp302
as(I702
I597
tp303
(lp304
(I667
I632
tp305
a(I737
I562
tp306
a(I667
I562
tp307
a(I702
I562
tp308
a(I667
I597
tp309
a(I702
I632
tp310
a(I737
I597
tp311
as(I107
I387
tp312
(lp313
(I72
I422
tp314
a(I142
I352
tp315
a(I72
I352
tp316
a(I142
I422
tp317
a(I107
I352
tp318
a(I72
I387
tp319
a(I107
I422
tp320
a(I142
I387
tp321
as(I527
I72
tp322
(lp323
(I492
I107
tp324
a(I562
I37
tp325
a(I492
I37
tp326
a(I562
I107
tp327
a(I527
I37
tp328
a(I492
I72
tp329
a(I527
I107
tp330
a(I562
I72
tp331
as(I422
I177
tp332
(lp333
(I387
I212
tp334
a(I457
I142
tp335
a(I457
I212
tp336
a(I422
I142
tp337
a(I387
I177
tp338
a(I422
I212
tp339
a(I457
I177
tp340
as(I632
I352
tp341
(lp342
(I597
I387
tp343
a(I667
I317
tp344
a(I597
I317
tp345
a(I667
I387
tp346
a(I632
I317
tp347
a(I597
I352
tp348
a(I632
I387
tp349
a(I667
I352
tp350
as(I702
I352
tp351
(lp352
(I667
I387
tp353
a(I737
I317
tp354
a(I667
I317
tp355
a(I702
I317
tp356
a(I667
I352
tp357
a(I737
I352
tp358
as(I807
I352
tp359
(lp360
(I772
I387
tp361
a(I842
I317
tp362
a(I772
I317
tp363
a(I842
I387
tp364
a(I807
I317
tp365
a(I772
I352
tp366
a(I807
I387
tp367
a(I842
I352
tp368
as(I772
I562
tp369
(lp370
(I737
I597
tp371
a(I807
I527
tp372
a(I737
I527
tp373
a(I772
I527
tp374
a(I737
I562
tp375
a(I807
I562
tp376
as(I352
I422
tp377
(lp378
(I317
I457
tp379
a(I317
I387
tp380
a(I352
I387
tp381
a(I317
I422
tp382
a(I352
I457
tp383
as(I37
I527
tp384
(lp385
(I2
I562
tp386
a(I72
I492
tp387
a(I2
I492
tp388
a(I72
I562
tp389
a(I37
I492
tp390
a(I2
I527
tp391
a(I37
I562
tp392
a(I72
I527
tp393
as(I632
I737
tp394
(lp395
(I597
I702
tp396
a(I632
I702
tp397
a(I597
I737
tp398
a(I667
I737
tp399
as(I1017
I597
tp400
(lp401
(I1017
I562
tp402
a(I1017
I632
tp403
as(I387
I177
tp404
(lp405
(I352
I212
tp406
a(I422
I142
tp407
a(I422
I212
tp408
a(I352
I177
tp409
a(I387
I212
tp410
a(I422
I177
tp411
as(I2
I702
tp412
(lp413
(I37
I667
tp414
a(I37
I737
tp415
a(I2
I667
tp416
a(I2
I737
tp417
a(I37
I702
tp418
as(I877
I422
tp419
(lp420
(I842
I457
tp421
a(I912
I387
tp422
a(I842
I387
tp423
a(I912
I457
tp424
a(I877
I387
tp425
a(I842
I422
tp426
a(I877
I457
tp427
a(I912
I422
tp428
as(I492
I562
tp429
(lp430
(I457
I597
tp431
a(I527
I527
tp432
a(I457
I527
tp433
a(I527
I597
tp434
a(I492
I527
tp435
a(I457
I562
tp436
a(I492
I597
tp437
a(I527
I562
tp438
as(I1017
I212
tp439
(lp440
(I1017
I177
tp441
a(I1017
I247
tp442
as(I72
I422
tp443
(lp444
(I37
I457
tp445
a(I107
I387
tp446
a(I37
I387
tp447
a(I107
I457
tp448
a(I72
I387
tp449
a(I37
I422
tp450
a(I72
I457
tp451
a(I107
I422
tp452
as(I37
I2
tp453
(lp454
(I2
I37
tp455
a(I72
I37
tp456
a(I2
I2
tp457
a(I37
I37
tp458
a(I72
I2
tp459
as(I37
I282
tp460
(lp461
(I2
I317
tp462
a(I72
I247
tp463
a(I2
I247
tp464
a(I72
I317
tp465
a(I37
I247
tp466
a(I2
I282
tp467
a(I37
I317
tp468
a(I72
I282
tp469
as(I142
I352
tp470
(lp471
(I107
I387
tp472
a(I177
I387
tp473
a(I107
I352
tp474
a(I142
I387
tp475
a(I177
I352
tp476
as(I982
I702
tp477
(lp478
(I947
I737
tp479
a(I1017
I667
tp480
a(I1017
I737
tp481
a(I947
I702
tp482
a(I982
I737
tp483
a(I1017
I702
tp484
as(I842
I2
tp485
(lp486
(I807
I37
tp487
a(I877
I37
tp488
a(I807
I2
tp489
a(I842
I37
tp490
a(I877
I2
tp491
as(I212
I492
tp492
(lp493
(I247
I457
tp494
a(I177
I457
tp495
a(I212
I457
tp496
a(I177
I492
tp497
as(I352
I282
tp498
(lp499
(I317
I317
tp500
a(I387
I247
tp501
a(I317
I247
tp502
a(I387
I317
tp503
a(I352
I247
tp504
a(I317
I282
tp505
a(I352
I317
tp506
a(I387
I282
tp507
as(I667
I247
tp508
(lp509
(I632
I282
tp510
a(I702
I212
tp511
a(I632
I212
tp512
a(I702
I282
tp513
a(I667
I212
tp514
a(I632
I247
tp515
a(I667
I282
tp516
a(I702
I247
tp517
as(I772
I142
tp518
(lp519
(I737
I177
tp520
a(I807
I177
tp521
a(I737
I142
tp522
a(I772
I177
tp523
a(I807
I142
tp524
as(I2
I247
tp525
(lp526
(I37
I212
tp527
a(I37
I282
tp528
a(I2
I212
tp529
a(I2
I282
tp530
a(I37
I247
tp531
as(I877
I177
tp532
(lp533
(I842
I212
tp534
a(I842
I142
tp535
a(I877
I142
tp536
a(I842
I177
tp537
a(I877
I212
tp538
as(I422
I247
tp539
(lp540
(I387
I282
tp541
a(I457
I212
tp542
a(I387
I212
tp543
a(I457
I282
tp544
a(I422
I212
tp545
a(I387
I247
tp546
a(I422
I282
tp547
a(I457
I247
tp548
as(I842
I282
tp549
(lp550
(I807
I317
tp551
a(I877
I247
tp552
a(I807
I247
tp553
a(I877
I317
tp554
a(I842
I247
tp555
a(I807
I282
tp556
a(I842
I317
tp557
a(I877
I282
tp558
as(I1017
I2
tp559
(lp560
(I982
I37
tp561
a(I982
I2
tp562
a(I1017
I37
tp563
as(I842
I387
tp564
(lp565
(I807
I422
tp566
a(I877
I352
tp567
a(I807
I352
tp568
a(I877
I422
tp569
a(I842
I352
tp570
a(I807
I387
tp571
a(I842
I422
tp572
a(I877
I387
tp573
as(I282
I492
tp574
(lp575
(I317
I457
tp576
a(I247
I457
tp577
a(I317
I527
tp578
a(I282
I457
tp579
a(I282
I527
tp580
a(I317
I492
tp581
as(I912
I422
tp582
(lp583
(I877
I457
tp584
a(I947
I387
tp585
a(I877
I387
tp586
a(I947
I457
tp587
a(I912
I387
tp588
a(I877
I422
tp589
a(I912
I457
tp590
a(I947
I422
tp591
as(I947
I37
tp592
(lp593
(I982
I2
tp594
a(I912
I2
tp595
a(I947
I2
tp596
a(I912
I37
tp597
a(I982
I37
tp598
as(I107
I422
tp599
(lp600
(I72
I457
tp601
a(I142
I387
tp602
a(I72
I387
tp603
a(I142
I457
tp604
a(I107
I387
tp605
a(I72
I422
tp606
a(I107
I457
tp607
a(I142
I422
tp608
as(I562
I72
tp609
(lp610
(I527
I107
tp611
a(I597
I37
tp612
a(I527
I37
tp613
a(I562
I37
tp614
a(I527
I72
tp615
a(I562
I107
tp616
as(I247
I422
tp617
(lp618
(I212
I457
tp619
a(I282
I387
tp620
a(I212
I387
tp621
a(I282
I457
tp622
a(I247
I387
tp623
a(I212
I422
tp624
a(I247
I457
tp625
a(I282
I422
tp626
as(I177
I37
tp627
(lp628
(I212
I2
tp629
a(I142
I2
tp630
a(I177
I2
tp631
a(I142
I37
tp632
a(I212
I37
tp633
as(I457
I142
tp634
(lp635
(I422
I177
tp636
a(I492
I107
tp637
a(I422
I107
tp638
a(I492
I177
tp639
a(I457
I107
tp640
a(I422
I142
tp641
a(I457
I177
tp642
a(I492
I142
tp643
as(I352
I527
tp644
(lp645
(I317
I562
tp646
a(I387
I492
tp647
a(I317
I492
tp648
a(I387
I562
tp649
a(I352
I492
tp650
a(I317
I527
tp651
a(I352
I562
tp652
a(I387
I527
tp653
as(I632
I177
tp654
(lp655
(I597
I212
tp656
a(I667
I142
tp657
a(I597
I142
tp658
a(I667
I212
tp659
a(I632
I142
tp660
a(I597
I177
tp661
a(I632
I212
tp662
a(I667
I177
tp663
as(I2
I212
tp664
(lp665
(I37
I177
tp666
a(I37
I247
tp667
a(I2
I177
tp668
a(I2
I247
tp669
a(I37
I212
tp670
as(I492
I72
tp671
(lp672
(I457
I107
tp673
a(I527
I37
tp674
a(I457
I37
tp675
a(I527
I107
tp676
a(I492
I37
tp677
a(I457
I72
tp678
a(I492
I107
tp679
a(I527
I72
tp680
as(I597
I212
tp681
(lp682
(I562
I247
tp683
a(I632
I177
tp684
a(I562
I177
tp685
a(I632
I247
tp686
a(I597
I177
tp687
a(I562
I212
tp688
a(I597
I247
tp689
a(I632
I212
tp690
as(I702
I282
tp691
(lp692
(I667
I317
tp693
a(I737
I247
tp694
a(I667
I247
tp695
a(I737
I317
tp696
a(I702
I247
tp697
a(I667
I282
tp698
a(I702
I317
tp699
a(I737
I282
tp700
as(I632
I562
tp701
(lp702
(I597
I597
tp703
a(I667
I527
tp704
a(I597
I527
tp705
a(I667
I597
tp706
a(I632
I527
tp707
a(I597
I562
tp708
a(I632
I597
tp709
a(I667
I562
tp710
as(I737
I492
tp711
(lp712
(I702
I527
tp713
a(I772
I527
tp714
a(I702
I492
tp715
a(I737
I527
tp716
a(I772
I492
tp717
as(I107
I737
tp718
(lp719
(I72
I702
tp720
a(I72
I737
tp721
a(I142
I737
tp722
as(I457
I282
tp723
(lp724
(I422
I317
tp725
a(I492
I247
tp726
a(I422
I247
tp727
a(I492
I317
tp728
a(I457
I247
tp729
a(I422
I282
tp730
a(I457
I317
tp731
a(I492
I282
tp732
as(I212
I387
tp733
(lp734
(I177
I422
tp735
a(I247
I352
tp736
a(I177
I352
tp737
a(I247
I422
tp738
a(I212
I352
tp739
a(I177
I387
tp740
a(I212
I422
tp741
a(I247
I387
tp742
as(I527
I212
tp743
(lp744
(I492
I247
tp745
a(I562
I177
tp746
a(I492
I177
tp747
a(I562
I247
tp748
a(I527
I177
tp749
a(I492
I212
tp750
a(I527
I247
tp751
a(I562
I212
tp752
as(I177
I737
tp753
(lp754
(I142
I737
tp755
a(I212
I737
tp756
as(I527
I107
tp757
(lp758
(I492
I142
tp759
a(I562
I72
tp760
a(I492
I72
tp761
a(I562
I142
tp762
a(I527
I72
tp763
a(I492
I107
tp764
a(I527
I142
tp765
a(I562
I107
tp766
as(I1017
I737
tp767
(lp768
(I982
I702
tp769
a(I1017
I702
tp770
a(I982
I737
tp771
as(I877
I737
tp772
(lp773
(I842
I737
tp774
a(I912
I737
tp775
as(I877
I282
tp776
(lp777
(I842
I317
tp778
a(I842
I247
tp779
a(I877
I247
tp780
a(I842
I282
tp781
a(I877
I317
tp782
as(I527
I37
tp783
(lp784
(I492
I72
tp785
a(I562
I2
tp786
a(I492
I2
tp787
a(I562
I72
tp788
a(I527
I2
tp789
a(I492
I37
tp790
a(I527
I72
tp791
a(I562
I37
tp792
as(I37
I142
tp793
(lp794
(I2
I177
tp795
a(I2
I107
tp796
a(I37
I107
tp797
a(I2
I142
tp798
a(I37
I177
tp799
as(I317
I247
tp800
(lp801
(I282
I282
tp802
a(I352
I212
tp803
a(I282
I212
tp804
a(I352
I282
tp805
a(I317
I212
tp806
a(I282
I247
tp807
a(I317
I282
tp808
a(I352
I247
tp809
as(I1017
I527
tp810
(lp811
(I1017
I492
tp812
a(I1017
I562
tp813
as(I492
I317
tp814
(lp815
(I527
I282
tp816
a(I457
I282
tp817
a(I492
I282
tp818
a(I457
I317
tp819
a(I527
I317
tp820
as(I772
I212
tp821
(lp822
(I737
I247
tp823
a(I807
I177
tp824
a(I737
I177
tp825
a(I807
I247
tp826
a(I772
I177
tp827
a(I737
I212
tp828
a(I772
I247
tp829
a(I807
I212
tp830
as(I1017
I457
tp831
(lp832
(I982
I422
tp833
a(I1017
I422
tp834
a(I982
I457
tp835
a(I1017
I492
tp836
as(I457
I492
tp837
(lp838
(I422
I527
tp839
a(I492
I527
tp840
a(I422
I492
tp841
a(I457
I527
tp842
a(I492
I492
tp843
as(I247
I37
tp844
(lp845
(I282
I2
tp846
a(I212
I2
tp847
a(I247
I2
tp848
a(I212
I37
tp849
a(I282
I37
tp850
as(I877
I37
tp851
(lp852
(I912
I2
tp853
a(I842
I2
tp854
a(I877
I2
tp855
a(I842
I37
tp856
a(I912
I37
tp857
as(I597
I702
tp858
(lp859
(I562
I737
tp860
a(I632
I667
tp861
a(I632
I737
tp862
a(I597
I667
tp863
a(I597
I737
tp864
a(I632
I702
tp865
as(I842
I142
tp866
(lp867
(I807
I177
tp868
a(I877
I177
tp869
a(I807
I142
tp870
a(I842
I177
tp871
a(I877
I142
tp872
as(I1017
I142
tp873
(lp874
(I1017
I107
tp875
a(I1017
I177
tp876
as(I632
I2
tp877
(lp878
(I597
I37
tp879
a(I667
I37
tp880
a(I597
I2
tp881
a(I632
I37
tp882
a(I667
I2
tp883
as(I702
I632
tp884
(lp885
(I737
I597
tp886
a(I667
I597
tp887
a(I702
I597
tp888
a(I667
I632
tp889
as(I947
I457
tp890
(lp891
(I982
I422
tp892
a(I912
I422
tp893
a(I947
I422
tp894
a(I912
I457
tp895
a(I982
I457
tp896
as(I72
I737
tp897
(lp898
(I37
I702
tp899
a(I72
I702
tp900
a(I37
I737
tp901
a(I107
I737
tp902
as(I842
I527
tp903
(lp904
(I807
I562
tp905
a(I877
I492
tp906
a(I807
I492
tp907
a(I842
I492
tp908
a(I807
I527
tp909
as(I422
I212
tp910
(lp911
(I387
I247
tp912
a(I457
I177
tp913
a(I387
I177
tp914
a(I457
I247
tp915
a(I422
I177
tp916
a(I387
I212
tp917
a(I422
I247
tp918
a(I457
I212
tp919
as(I632
I387
tp920
(lp921
(I597
I422
tp922
a(I667
I352
tp923
a(I597
I352
tp924
a(I667
I422
tp925
a(I632
I352
tp926
a(I597
I387
tp927
a(I632
I422
tp928
a(I667
I387
tp929
as(I842
I352
tp930
(lp931
(I807
I387
tp932
a(I877
I317
tp933
a(I807
I317
tp934
a(I877
I387
tp935
a(I842
I317
tp936
a(I807
I352
tp937
a(I842
I387
tp938
a(I877
I352
tp939
as(I807
I317
tp940
(lp941
(I772
I352
tp942
a(I842
I282
tp943
a(I772
I282
tp944
a(I842
I352
tp945
a(I807
I282
tp946
a(I772
I317
tp947
a(I807
I352
tp948
a(I842
I317
tp949
as(I597
I667
tp950
(lp951
(I632
I632
tp952
a(I632
I702
tp953
a(I597
I632
tp954
a(I597
I702
tp955
a(I632
I667
tp956
as(I667
I177
tp957
(lp958
(I632
I212
tp959
a(I702
I142
tp960
a(I632
I142
tp961
a(I702
I212
tp962
a(I667
I142
tp963
a(I632
I177
tp964
a(I667
I212
tp965
a(I702
I177
tp966
as(I842
I737
tp967
(lp968
(I807
I737
tp969
a(I877
I737
tp970
as(I947
I702
tp971
(lp972
(I912
I737
tp973
a(I982
I737
tp974
a(I947
I737
tp975
a(I982
I702
tp976
as(I667
I352
tp977
(lp978
(I632
I387
tp979
a(I702
I317
tp980
a(I632
I317
tp981
a(I667
I317
tp982
a(I632
I352
tp983
a(I667
I387
tp984
a(I702
I352
tp985
as(I422
I562
tp986
(lp987
(I387
I597
tp988
a(I457
I527
tp989
a(I387
I527
tp990
a(I457
I597
tp991
a(I422
I527
tp992
a(I387
I562
tp993
a(I422
I597
tp994
a(I457
I562
tp995
as(I562
I387
tp996
(lp997
(I597
I352
tp998
a(I597
I422
tp999
a(I562
I352
tp1000
a(I562
I422
tp1001
a(I597
I387
tp1002
as(I142
I37
tp1003
(lp1004
(I177
I2
tp1005
a(I107
I2
tp1006
a(I142
I2
tp1007
a(I107
I37
tp1008
a(I177
I37
tp1009
as(I877
I387
tp1010
(lp1011
(I842
I422
tp1012
a(I842
I352
tp1013
a(I912
I422
tp1014
a(I877
I352
tp1015
a(I842
I387
tp1016
a(I877
I422
tp1017
a(I912
I387
tp1018
as(I457
I72
tp1019
(lp1020
(I422
I107
tp1021
a(I492
I37
tp1022
a(I422
I37
tp1023
a(I492
I107
tp1024
a(I457
I37
tp1025
a(I422
I72
tp1026
a(I457
I107
tp1027
a(I492
I72
tp1028
as(I562
I177
tp1029
(lp1030
(I527
I212
tp1031
a(I597
I142
tp1032
a(I527
I142
tp1033
a(I597
I212
tp1034
a(I562
I142
tp1035
a(I527
I177
tp1036
a(I562
I212
tp1037
a(I597
I177
tp1038
as(I457
I247
tp1039
(lp1040
(I422
I282
tp1041
a(I492
I212
tp1042
a(I422
I212
tp1043
a(I492
I282
tp1044
a(I457
I212
tp1045
a(I422
I247
tp1046
a(I457
I282
tp1047
a(I492
I247
tp1048
as(I72
I457
tp1049
(lp1050
(I37
I492
tp1051
a(I107
I422
tp1052
a(I37
I422
tp1053
a(I107
I492
tp1054
a(I72
I422
tp1055
a(I37
I457
tp1056
a(I72
I492
tp1057
a(I107
I457
tp1058
as(I37
I737
tp1059
(lp1060
(I72
I702
tp1061
a(I2
I702
tp1062
a(I37
I702
tp1063
a(I2
I737
tp1064
a(I72
I737
tp1065
as(I737
I597
tp1066
(lp1067
(I702
I632
tp1068
a(I772
I562
tp1069
a(I702
I562
tp1070
a(I737
I562
tp1071
a(I702
I597
tp1072
as(I667
I457
tp1073
(lp1074
(I632
I492
tp1075
a(I632
I422
tp1076
a(I702
I492
tp1077
a(I667
I422
tp1078
a(I632
I457
tp1079
a(I667
I492
tp1080
as(I492
I142
tp1081
(lp1082
(I457
I177
tp1083
a(I527
I107
tp1084
a(I457
I107
tp1085
a(I527
I177
tp1086
a(I492
I107
tp1087
a(I457
I142
tp1088
a(I492
I177
tp1089
a(I527
I142
tp1090
as(I422
I2
tp1091
(lp1092
(I387
I37
tp1093
a(I457
I37
tp1094
a(I387
I2
tp1095
a(I422
I37
tp1096
a(I457
I2
tp1097
as(I947
I737
tp1098
(lp1099
(I982
I702
tp1100
a(I947
I702
tp1101
a(I912
I737
tp1102
a(I982
I737
tp1103
as(I352
I317
tp1104
(lp1105
(I317
I352
tp1106
a(I387
I282
tp1107
a(I317
I282
tp1108
a(I352
I282
tp1109
a(I317
I317
tp1110
a(I352
I352
tp1111
a(I387
I317
tp1112
as(I807
I2
tp1113
(lp1114
(I772
I37
tp1115
a(I842
I37
tp1116
a(I772
I2
tp1117
a(I807
I37
tp1118
a(I842
I2
tp1119
as(I597
I142
tp1120
(lp1121
(I562
I177
tp1122
a(I562
I107
tp1123
a(I632
I177
tp1124
a(I562
I142
tp1125
a(I597
I177
tp1126
a(I632
I142
tp1127
as(I387
I2
tp1128
(lp1129
(I352
I37
tp1130
a(I422
I37
tp1131
a(I352
I2
tp1132
a(I387
I37
tp1133
a(I422
I2
tp1134
as(I527
I247
tp1135
(lp1136
(I492
I282
tp1137
a(I562
I212
tp1138
a(I492
I212
tp1139
a(I562
I282
tp1140
a(I527
I212
tp1141
a(I492
I247
tp1142
a(I527
I282
tp1143
a(I562
I247
tp1144
as(I947
I422
tp1145
(lp1146
(I912
I457
tp1147
a(I982
I387
tp1148
a(I912
I387
tp1149
a(I982
I457
tp1150
a(I947
I387
tp1151
a(I912
I422
tp1152
a(I947
I457
tp1153
a(I982
I422
tp1154
as(I877
I142
tp1155
(lp1156
(I842
I177
tp1157
a(I842
I142
tp1158
a(I877
I177
tp1159
as(I352
I37
tp1160
(lp1161
(I387
I2
tp1162
a(I317
I2
tp1163
a(I352
I2
tp1164
a(I317
I37
tp1165
a(I387
I37
tp1166
as(I317
I387
tp1167
(lp1168
(I282
I422
tp1169
a(I352
I352
tp1170
a(I282
I352
tp1171
a(I352
I422
tp1172
a(I317
I352
tp1173
a(I282
I387
tp1174
a(I317
I422
tp1175
a(I352
I387
tp1176
as(I387
I282
tp1177
(lp1178
(I352
I317
tp1179
a(I422
I247
tp1180
a(I352
I247
tp1181
a(I422
I317
tp1182
a(I387
I247
tp1183
a(I352
I282
tp1184
a(I387
I317
tp1185
a(I422
I282
tp1186
as(I422
I527
tp1187
(lp1188
(I387
I562
tp1189
a(I457
I492
tp1190
a(I387
I492
tp1191
a(I457
I562
tp1192
a(I422
I492
tp1193
a(I387
I527
tp1194
a(I422
I562
tp1195
a(I457
I527
tp1196
as(I422
I317
tp1197
(lp1198
(I457
I282
tp1199
a(I387
I282
tp1200
a(I422
I282
tp1201
a(I387
I317
tp1202
a(I457
I317
tp1203
as(I387
I212
tp1204
(lp1205
(I352
I247
tp1206
a(I422
I177
tp1207
a(I352
I177
tp1208
a(I422
I247
tp1209
a(I387
I177
tp1210
a(I352
I212
tp1211
a(I387
I247
tp1212
a(I422
I212
tp1213
as(I737
I737
tp1214
(lp1215
(I702
I737
tp1216
a(I772
I737
tp1217
as(I247
I387
tp1218
(lp1219
(I212
I422
tp1220
a(I282
I352
tp1221
a(I212
I352
tp1222
a(I282
I422
tp1223
a(I247
I352
tp1224
a(I212
I387
tp1225
a(I247
I422
tp1226
a(I282
I387
tp1227
as(I1017
I667
tp1228
(lp1229
(I982
I702
tp1230
a(I1017
I632
tp1231
a(I1017
I702
tp1232
as(I842
I247
tp1233
(lp1234
(I807
I282
tp1235
a(I877
I212
tp1236
a(I807
I212
tp1237
a(I877
I282
tp1238
a(I842
I212
tp1239
a(I807
I247
tp1240
a(I842
I282
tp1241
a(I877
I247
tp1242
as(I632
I212
tp1243
(lp1244
(I597
I247
tp1245
a(I667
I177
tp1246
a(I597
I177
tp1247
a(I667
I247
tp1248
a(I632
I177
tp1249
a(I597
I212
tp1250
a(I632
I247
tp1251
a(I667
I212
tp1252
as(I387
I492
tp1253
(lp1254
(I352
I527
tp1255
a(I352
I457
tp1256
a(I422
I527
tp1257
a(I352
I492
tp1258
a(I387
I527
tp1259
a(I422
I492
tp1260
as(I807
I492
tp1261
(lp1262
(I772
I527
tp1263
a(I842
I457
tp1264
a(I842
I527
tp1265
a(I807
I457
tp1266
a(I772
I492
tp1267
a(I807
I527
tp1268
a(I842
I492
tp1269
as(I37
I247
tp1270
(lp1271
(I2
I282
tp1272
a(I72
I212
tp1273
a(I2
I212
tp1274
a(I72
I282
tp1275
a(I37
I212
tp1276
a(I2
I247
tp1277
a(I37
I282
tp1278
a(I72
I247
tp1279
as(I632
I597
tp1280
(lp1281
(I597
I632
tp1282
a(I667
I562
tp1283
a(I597
I562
tp1284
a(I667
I632
tp1285
a(I632
I562
tp1286
a(I597
I597
tp1287
a(I632
I632
tp1288
a(I667
I597
tp1289
as(I562
I737
tp1290
(lp1291
(I597
I702
tp1292
a(I527
I737
tp1293
a(I597
I737
tp1294
as(I72
I352
tp1295
(lp1296
(I37
I387
tp1297
a(I37
I317
tp1298
a(I107
I387
tp1299
a(I72
I317
tp1300
a(I37
I352
tp1301
a(I72
I387
tp1302
a(I107
I352
tp1303
as(I317
I597
tp1304
(lp1305
(I352
I562
tp1306
a(I282
I562
tp1307
a(I317
I562
tp1308
a(I282
I597
tp1309
a(I352
I597
tp1310
as(I1017
I387
tp1311
(lp1312
(I982
I422
tp1313
a(I1017
I352
tp1314
a(I982
I387
tp1315
a(I1017
I422
tp1316
as(I597
I737
tp1317
(lp1318
(I632
I702
tp1319
a(I597
I702
tp1320
a(I562
I737
tp1321
a(I632
I737
tp1322
as(I842
I492
tp1323
(lp1324
(I807
I527
tp1325
a(I877
I457
tp1326
a(I807
I457
tp1327
a(I842
I457
tp1328
a(I807
I492
tp1329
a(I842
I527
tp1330
a(I877
I492
tp1331
as(I282
I37
tp1332
(lp1333
(I317
I2
tp1334
a(I247
I2
tp1335
a(I282
I2
tp1336
a(I247
I37
tp1337
a(I317
I37
tp1338
as(I597
I492
tp1339
(lp1340
(I562
I527
tp1341
a(I632
I457
tp1342
a(I562
I457
tp1343
a(I632
I527
tp1344
a(I597
I457
tp1345
a(I562
I492
tp1346
a(I597
I527
tp1347
a(I632
I492
tp1348
as(I702
I562
tp1349
(lp1350
(I667
I597
tp1351
a(I737
I527
tp1352
a(I667
I527
tp1353
a(I737
I597
tp1354
a(I702
I527
tp1355
a(I667
I562
tp1356
a(I702
I597
tp1357
a(I737
I562
tp1358
as(I667
I737
tp1359
(lp1360
(I632
I702
tp1361
a(I632
I737
tp1362
a(I702
I737
tp1363
as(I177
I422
tp1364
(lp1365
(I142
I457
tp1366
a(I212
I387
tp1367
a(I142
I387
tp1368
a(I212
I457
tp1369
a(I177
I387
tp1370
a(I142
I422
tp1371
a(I177
I457
tp1372
a(I212
I422
tp1373
as(I562
I37
tp1374
(lp1375
(I527
I72
tp1376
a(I597
I2
tp1377
a(I527
I2
tp1378
a(I562
I2
tp1379
a(I527
I37
tp1380
a(I562
I72
tp1381
a(I597
I37
tp1382
as(I107
I457
tp1383
(lp1384
(I72
I492
tp1385
a(I142
I422
tp1386
a(I72
I422
tp1387
a(I142
I492
tp1388
a(I107
I422
tp1389
a(I72
I457
tp1390
a(I107
I492
tp1391
a(I142
I457
tp1392
as(I737
I527
tp1393
(lp1394
(I702
I562
tp1395
a(I772
I492
tp1396
a(I702
I492
tp1397
a(I772
I562
tp1398
a(I737
I492
tp1399
a(I702
I527
tp1400
a(I737
I562
tp1401
a(I772
I527
tp1402
as(I982
I387
tp1403
(lp1404
(I947
I422
tp1405
a(I1017
I352
tp1406
a(I1017
I422
tp1407
a(I947
I387
tp1408
a(I982
I422
tp1409
a(I1017
I387
tp1410
as(I667
I282
tp1411
(lp1412
(I632
I317
tp1413
a(I702
I247
tp1414
a(I632
I247
tp1415
a(I702
I317
tp1416
a(I667
I247
tp1417
a(I632
I282
tp1418
a(I667
I317
tp1419
a(I702
I282
tp1420
as(I702
I2
tp1421
(lp1422
(I667
I37
tp1423
a(I737
I37
tp1424
a(I667
I2
tp1425
a(I702
I37
tp1426
a(I737
I2
tp1427
as(I2
I107
tp1428
(lp1429
(I37
I72
tp1430
a(I37
I142
tp1431
a(I2
I72
tp1432
a(I2
I142
tp1433
a(I37
I107
tp1434
as(I352
I492
tp1435
(lp1436
(I317
I527
tp1437
a(I317
I457
tp1438
a(I387
I527
tp1439
a(I352
I457
tp1440
a(I317
I492
tp1441
a(I352
I527
tp1442
a(I387
I492
tp1443
as(I667
I2
tp1444
(lp1445
(I632
I37
tp1446
a(I702
I37
tp1447
a(I632
I2
tp1448
a(I667
I37
tp1449
a(I702
I2
tp1450
as(I877
I2
tp1451
(lp1452
(I842
I37
tp1453
a(I912
I37
tp1454
a(I842
I2
tp1455
a(I877
I37
tp1456
a(I912
I2
tp1457
as(I317
I317
tp1458
(lp1459
(I282
I352
tp1460
a(I352
I282
tp1461
a(I282
I282
tp1462
a(I352
I352
tp1463
a(I317
I282
tp1464
a(I282
I317
tp1465
a(I317
I352
tp1466
a(I352
I317
tp1467
as(I352
I212
tp1468
(lp1469
(I317
I247
tp1470
a(I387
I177
tp1471
a(I317
I177
tp1472
a(I387
I247
tp1473
a(I352
I177
tp1474
a(I317
I212
tp1475
a(I352
I247
tp1476
a(I387
I212
tp1477
as(I457
I2
tp1478
(lp1479
(I422
I37
tp1480
a(I492
I37
tp1481
a(I422
I2
tp1482
a(I457
I37
tp1483
a(I492
I2
tp1484
as(I212
I2
tp1485
(lp1486
(I177
I37
tp1487
a(I247
I37
tp1488
a(I177
I2
tp1489
a(I212
I37
tp1490
a(I247
I2
tp1491
as(I1017
I632
tp1492
(lp1493
(I1017
I597
tp1494
a(I1017
I667
tp1495
as(I632
I37
tp1496
(lp1497
(I667
I2
tp1498
a(I597
I2
tp1499
a(I632
I2
tp1500
a(I597
I37
tp1501
a(I667
I37
tp1502
as(I527
I317
tp1503
(lp1504
(I562
I282
tp1505
a(I492
I282
tp1506
a(I562
I352
tp1507
a(I527
I282
tp1508
a(I492
I317
tp1509
a(I562
I317
tp1510
as(I37
I352
tp1511
(lp1512
(I2
I387
tp1513
a(I72
I317
tp1514
a(I2
I317
tp1515
a(I72
I387
tp1516
a(I37
I317
tp1517
a(I2
I352
tp1518
a(I37
I387
tp1519
a(I72
I352
tp1520
as(I72
I667
tp1521
(lp1522
(I37
I702
tp1523
a(I37
I632
tp1524
a(I72
I632
tp1525
a(I37
I667
tp1526
a(I72
I702
tp1527
as(I2
I667
tp1528
(lp1529
(I37
I632
tp1530
a(I37
I702
tp1531
a(I2
I632
tp1532
a(I2
I702
tp1533
a(I37
I667
tp1534
as(I317
I37
tp1535
(lp1536
(I352
I2
tp1537
a(I282
I2
tp1538
a(I317
I2
tp1539
a(I282
I37
tp1540
a(I352
I37
tp1541
as(I352
I2
tp1542
(lp1543
(I317
I37
tp1544
a(I387
I37
tp1545
a(I317
I2
tp1546
a(I352
I37
tp1547
a(I387
I2
tp1548
as(I772
I317
tp1549
(lp1550
(I737
I352
tp1551
a(I807
I282
tp1552
a(I737
I282
tp1553
a(I807
I352
tp1554
a(I772
I282
tp1555
a(I737
I317
tp1556
a(I772
I352
tp1557
a(I807
I317
tp1558
as(I282
I527
tp1559
(lp1560
(I317
I492
tp1561
a(I317
I562
tp1562
a(I282
I492
tp1563
a(I282
I562
tp1564
a(I317
I527
tp1565
as(I492
I527
tp1566
(lp1567
(I457
I562
tp1568
a(I527
I492
tp1569
a(I457
I492
tp1570
a(I527
I562
tp1571
a(I492
I492
tp1572
a(I457
I527
tp1573
a(I492
I562
tp1574
a(I527
I527
tp1575
as(I492
I212
tp1576
(lp1577
(I457
I247
tp1578
a(I527
I177
tp1579
a(I457
I177
tp1580
a(I527
I247
tp1581
a(I492
I177
tp1582
a(I457
I212
tp1583
a(I492
I247
tp1584
a(I527
I212
tp1585
as(I632
I422
tp1586
(lp1587
(I597
I457
tp1588
a(I667
I387
tp1589
a(I597
I387
tp1590
a(I667
I457
tp1591
a(I632
I387
tp1592
a(I597
I422
tp1593
a(I632
I457
tp1594
a(I667
I422
tp1595
as(I667
I562
tp1596
(lp1597
(I632
I597
tp1598
a(I702
I527
tp1599
a(I632
I527
tp1600
a(I702
I597
tp1601
a(I667
I527
tp1602
a(I632
I562
tp1603
a(I667
I597
tp1604
a(I702
I562
tp1605
as(I37
I632
tp1606
(lp1607
(I2
I667
tp1608
a(I72
I597
tp1609
a(I2
I597
tp1610
a(I72
I667
tp1611
a(I37
I597
tp1612
a(I2
I632
tp1613
a(I37
I667
tp1614
a(I72
I632
tp1615
as(I2
I527
tp1616
(lp1617
(I37
I492
tp1618
a(I37
I562
tp1619
a(I2
I492
tp1620
a(I2
I562
tp1621
a(I37
I527
tp1622
as(I492
I107
tp1623
(lp1624
(I457
I142
tp1625
a(I527
I72
tp1626
a(I457
I72
tp1627
a(I527
I142
tp1628
a(I492
I72
tp1629
a(I457
I107
tp1630
a(I492
I142
tp1631
a(I527
I107
tp1632
as(I387
I317
tp1633
(lp1634
(I352
I352
tp1635
a(I422
I282
tp1636
a(I352
I282
tp1637
a(I387
I282
tp1638
a(I352
I317
tp1639
a(I422
I317
tp1640
as(I387
I247
tp1641
(lp1642
(I352
I282
tp1643
a(I422
I212
tp1644
a(I352
I212
tp1645
a(I422
I282
tp1646
a(I387
I212
tp1647
a(I352
I247
tp1648
a(I387
I282
tp1649
a(I422
I247
tp1650
as(I667
I422
tp1651
(lp1652
(I632
I457
tp1653
a(I632
I387
tp1654
a(I667
I387
tp1655
a(I632
I422
tp1656
a(I667
I457
tp1657
as(I1017
I352
tp1658
(lp1659
(I982
I387
tp1660
a(I1017
I317
tp1661
a(I1017
I387
tp1662
as(I842
I212
tp1663
(lp1664
(I807
I247
tp1665
a(I877
I177
tp1666
a(I807
I177
tp1667
a(I877
I247
tp1668
a(I842
I177
tp1669
a(I807
I212
tp1670
a(I842
I247
tp1671
a(I877
I212
tp1672
as(I2
I632
tp1673
(lp1674
(I37
I597
tp1675
a(I37
I667
tp1676
a(I2
I597
tp1677
a(I2
I667
tp1678
a(I37
I632
tp1679
as(I282
I422
tp1680
(lp1681
(I247
I457
tp1682
a(I317
I387
tp1683
a(I247
I387
tp1684
a(I317
I457
tp1685
a(I282
I387
tp1686
a(I247
I422
tp1687
a(I282
I457
tp1688
a(I317
I422
tp1689
as(I72
I492
tp1690
(lp1691
(I37
I527
tp1692
a(I107
I457
tp1693
a(I37
I457
tp1694
a(I72
I457
tp1695
a(I37
I492
tp1696
a(I72
I527
tp1697
a(I107
I492
tp1698
as(I1017
I37
tp1699
(lp1700
(I982
I2
tp1701
a(I1017
I2
tp1702
a(I982
I37
tp1703
a(I1017
I72
tp1704
as(I387
I737
tp1705
(lp1706
(I352
I737
tp1707
a(I422
I737
tp1708
as(I282
I457
tp1709
(lp1710
(I317
I422
tp1711
a(I247
I422
tp1712
a(I317
I492
tp1713
a(I282
I422
tp1714
a(I247
I457
tp1715
a(I282
I492
tp1716
a(I317
I457
tp1717
as(I562
I492
tp1718
(lp1719
(I527
I527
tp1720
a(I597
I457
tp1721
a(I597
I527
tp1722
a(I562
I457
tp1723
a(I527
I492
tp1724
a(I562
I527
tp1725
a(I597
I492
tp1726
as(I527
I737
tp1727
(lp1728
(I492
I737
tp1729
a(I562
I737
tp1730
as(I317
I492
tp1731
(lp1732
(I282
I527
tp1733
a(I352
I457
tp1734
a(I282
I457
tp1735
a(I352
I527
tp1736
a(I317
I457
tp1737
a(I282
I492
tp1738
a(I317
I527
tp1739
a(I352
I492
tp1740
as(I37
I597
tp1741
(lp1742
(I2
I632
tp1743
a(I72
I562
tp1744
a(I2
I562
tp1745
a(I72
I632
tp1746
a(I37
I562
tp1747
a(I2
I597
tp1748
a(I37
I632
tp1749
a(I72
I597
tp1750
as(I562
I562
tp1751
(lp1752
(I527
I597
tp1753
a(I597
I527
tp1754
a(I527
I527
tp1755
a(I597
I597
tp1756
a(I562
I527
tp1757
a(I527
I562
tp1758
a(I562
I597
tp1759
a(I597
I562
tp1760
as(I2
I177
tp1761
(lp1762
(I37
I142
tp1763
a(I37
I212
tp1764
a(I2
I142
tp1765
a(I2
I212
tp1766
a(I37
I177
tp1767
as(I527
I492
tp1768
(lp1769
(I492
I527
tp1770
a(I562
I457
tp1771
a(I562
I527
tp1772
a(I492
I492
tp1773
a(I527
I527
tp1774
a(I562
I492
tp1775
as(I177
I457
tp1776
(lp1777
(I142
I492
tp1778
a(I212
I422
tp1779
a(I142
I422
tp1780
a(I212
I492
tp1781
a(I177
I422
tp1782
a(I142
I457
tp1783
a(I177
I492
tp1784
a(I212
I457
tp1785
as(I317
I212
tp1786
(lp1787
(I282
I247
tp1788
a(I352
I177
tp1789
a(I282
I177
tp1790
a(I352
I247
tp1791
a(I317
I177
tp1792
a(I282
I212
tp1793
a(I317
I247
tp1794
a(I352
I212
tp1795
as(I982
I37
tp1796
(lp1797
(I1017
I2
tp1798
a(I947
I2
tp1799
a(I1017
I72
tp1800
a(I982
I2
tp1801
a(I947
I37
tp1802
a(I1017
I37
tp1803
as(I772
I247
tp1804
(lp1805
(I737
I282
tp1806
a(I807
I212
tp1807
a(I737
I212
tp1808
a(I807
I282
tp1809
a(I772
I212
tp1810
a(I737
I247
tp1811
a(I772
I282
tp1812
a(I807
I247
tp1813
as(I72
I562
tp1814
(lp1815
(I37
I597
tp1816
a(I37
I527
tp1817
a(I72
I527
tp1818
a(I37
I562
tp1819
a(I72
I597
tp1820
as(I597
I352
tp1821
(lp1822
(I562
I387
tp1823
a(I632
I317
tp1824
a(I562
I317
tp1825
a(I632
I387
tp1826
a(I597
I317
tp1827
a(I562
I352
tp1828
a(I597
I387
tp1829
a(I632
I352
tp1830
as(I562
I2
tp1831
(lp1832
(I527
I37
tp1833
a(I597
I37
tp1834
a(I527
I2
tp1835
a(I562
I37
tp1836
a(I597
I2
tp1837
as(I457
I317
tp1838
(lp1839
(I492
I282
tp1840
a(I422
I282
tp1841
a(I457
I282
tp1842
a(I422
I317
tp1843
a(I492
I317
tp1844
as(I2
I72
tp1845
(lp1846
(I37
I37
tp1847
a(I37
I107
tp1848
a(I2
I37
tp1849
a(I2
I107
tp1850
a(I37
I72
tp1851
as(I632
I247
tp1852
(lp1853
(I597
I282
tp1854
a(I667
I212
tp1855
a(I597
I212
tp1856
a(I667
I282
tp1857
a(I632
I212
tp1858
a(I597
I247
tp1859
a(I632
I282
tp1860
a(I667
I247
tp1861
as(I597
I422
tp1862
(lp1863
(I562
I457
tp1864
a(I632
I387
tp1865
a(I562
I387
tp1866
a(I632
I457
tp1867
a(I597
I387
tp1868
a(I562
I422
tp1869
a(I597
I457
tp1870
a(I632
I422
tp1871
as(I667
I317
tp1872
(lp1873
(I632
I352
tp1874
a(I702
I282
tp1875
a(I632
I282
tp1876
a(I702
I352
tp1877
a(I667
I282
tp1878
a(I632
I317
tp1879
a(I667
I352
tp1880
a(I702
I317
tp1881
as(I737
I2
tp1882
(lp1883
(I702
I37
tp1884
a(I772
I37
tp1885
a(I702
I2
tp1886
a(I737
I37
tp1887
a(I772
I2
tp1888
as(I72
I2
tp1889
(lp1890
(I37
I37
tp1891
a(I107
I37
tp1892
a(I37
I2
tp1893
a(I72
I37
tp1894
a(I107
I2
tp1895
as(I282
I737
tp1896
(lp1897
(I247
I737
tp1898
a(I317
I737
tp1899
as(I912
I737
tp1900
(lp1901
(I947
I702
tp1902
a(I877
I737
tp1903
a(I947
I737
tp1904
as(I352
I457
tp1905
(lp1906
(I317
I492
tp1907
a(I317
I422
tp1908
a(I387
I492
tp1909
a(I352
I422
tp1910
a(I317
I457
tp1911
a(I352
I492
tp1912
as(I632
I632
tp1913
(lp1914
(I597
I667
tp1915
a(I667
I597
tp1916
a(I597
I597
tp1917
a(I632
I597
tp1918
a(I597
I632
tp1919
a(I632
I667
tp1920
a(I667
I632
tp1921
as(I597
I37
tp1922
(lp1923
(I562
I72
tp1924
a(I632
I2
tp1925
a(I562
I2
tp1926
a(I597
I2
tp1927
a(I562
I37
tp1928
a(I632
I37
tp1929
as(I667
I37
tp1930
(lp1931
(I702
I2
tp1932
a(I632
I2
tp1933
a(I667
I2
tp1934
a(I632
I37
tp1935
a(I702
I37
tp1936
as(I982
I737
tp1937
(lp1938
(I1017
I702
tp1939
a(I947
I702
tp1940
a(I982
I702
tp1941
a(I947
I737
tp1942
a(I1017
I737
tp1943
as(I72
I282
tp1944
(lp1945
(I37
I317
tp1946
a(I37
I247
tp1947
a(I72
I247
tp1948
a(I37
I282
tp1949
a(I72
I317
tp1950
as(I282
I247
tp1951
(lp1952
(I317
I212
tp1953
a(I317
I282
tp1954
a(I282
I212
tp1955
a(I282
I282
tp1956
a(I317
I247
tp1957
as(I37
I492
tp1958
(lp1959
(I2
I527
tp1960
a(I72
I457
tp1961
a(I2
I457
tp1962
a(I72
I527
tp1963
a(I37
I457
tp1964
a(I2
I492
tp1965
a(I37
I527
tp1966
a(I72
I492
tp1967
as(I807
I737
tp1968
(lp1969
(I772
I737
tp1970
a(I842
I737
tp1971
as(I72
I212
tp1972
(lp1973
(I37
I247
tp1974
a(I37
I177
tp1975
a(I37
I212
tp1976
a(I72
I247
tp1977
as(I702
I177
tp1978
(lp1979
(I667
I212
tp1980
a(I737
I142
tp1981
a(I667
I142
tp1982
a(I737
I212
tp1983
a(I702
I142
tp1984
a(I667
I177
tp1985
a(I702
I212
tp1986
a(I737
I177
tp1987
as(I212
I457
tp1988
(lp1989
(I177
I492
tp1990
a(I247
I422
tp1991
a(I177
I422
tp1992
a(I212
I422
tp1993
a(I177
I457
tp1994
a(I212
I492
tp1995
a(I247
I457
tp1996
as(I562
I597
tp1997
(lp1998
(I597
I562
tp1999
a(I527
I562
tp2000
a(I597
I632
tp2001
a(I562
I562
tp2002
a(I527
I597
tp2003
a(I597
I597
tp2004
as(I527
I177
tp2005
(lp2006
(I492
I212
tp2007
a(I562
I142
tp2008
a(I492
I142
tp2009
a(I562
I212
tp2010
a(I527
I142
tp2011
a(I492
I177
tp2012
a(I527
I212
tp2013
a(I562
I177
tp2014
as(I457
I212
tp2015
(lp2016
(I422
I247
tp2017
a(I492
I177
tp2018
a(I422
I177
tp2019
a(I492
I247
tp2020
a(I457
I177
tp2021
a(I422
I212
tp2022
a(I457
I247
tp2023
a(I492
I212
tp2024
as(I667
I597
tp2025
(lp2026
(I632
I632
tp2027
a(I702
I562
tp2028
a(I632
I562
tp2029
a(I702
I632
tp2030
a(I667
I562
tp2031
a(I632
I597
tp2032
a(I667
I632
tp2033
a(I702
I597
tp2034
as(I1017
I562
tp2035
(lp2036
(I1017
I527
tp2037
a(I1017
I597
tp2038
as(I492
I282
tp2039
(lp2040
(I457
I317
tp2041
a(I527
I247
tp2042
a(I457
I247
tp2043
a(I527
I317
tp2044
a(I492
I247
tp2045
a(I457
I282
tp2046
a(I492
I317
tp2047
a(I527
I282
tp2048
as(I772
I177
tp2049
(lp2050
(I737
I212
tp2051
a(I807
I142
tp2052
a(I737
I142
tp2053
a(I807
I212
tp2054
a(I772
I142
tp2055
a(I737
I177
tp2056
a(I772
I212
tp2057
a(I807
I177
tp2058
as(I352
I562
tp2059
(lp2060
(I317
I597
tp2061
a(I387
I527
tp2062
a(I317
I527
tp2063
a(I387
I597
tp2064
a(I352
I527
tp2065
a(I317
I562
tp2066
a(I352
I597
tp2067
a(I387
I562
tp2068
as(I1017
I492
tp2069
(lp2070
(I982
I457
tp2071
a(I1017
I457
tp2072
a(I1017
I527
tp2073
as(I142
I457
tp2074
(lp2075
(I107
I492
tp2076
a(I177
I422
tp2077
a(I107
I422
tp2078
a(I177
I492
tp2079
a(I142
I422
tp2080
a(I107
I457
tp2081
a(I142
I492
tp2082
a(I177
I457
tp2083
as(I492
I597
tp2084
(lp2085
(I527
I562
tp2086
a(I457
I562
tp2087
a(I492
I562
tp2088
a(I457
I597
tp2089
a(I527
I597
tp2090
as(I807
I142
tp2091
(lp2092
(I772
I177
tp2093
a(I842
I177
tp2094
a(I772
I142
tp2095
a(I807
I177
tp2096
a(I842
I142
tp2097
as(I1017
I177
tp2098
(lp2099
(I1017
I142
tp2100
a(I1017
I212
tp2101
as(I2
I457
tp2102
(lp2103
(I37
I422
tp2104
a(I37
I492
tp2105
a(I2
I422
tp2106
a(I2
I492
tp2107
a(I37
I457
tp2108
as(I37
I562
tp2109
(lp2110
(I2
I597
tp2111
a(I72
I527
tp2112
a(I2
I527
tp2113
a(I72
I597
tp2114
a(I37
I527
tp2115
a(I2
I562
tp2116
a(I37
I597
tp2117
a(I72
I562
tp2118
as(I247
I352
tp2119
(lp2120
(I212
I387
tp2121
a(I282
I317
tp2122
a(I282
I387
tp2123
a(I212
I352
tp2124
a(I247
I387
tp2125
a(I282
I352
tp2126
as(I982
I422
tp2127
(lp2128
(I947
I457
tp2129
a(I1017
I387
tp2130
a(I947
I387
tp2131
a(I1017
I457
tp2132
a(I982
I387
tp2133
a(I947
I422
tp2134
a(I982
I457
tp2135
a(I1017
I422
tp2136
as(I702
I492
tp2137
(lp2138
(I667
I527
tp2139
a(I667
I457
tp2140
a(I737
I527
tp2141
a(I667
I492
tp2142
a(I702
I527
tp2143
a(I737
I492
tp2144
as(I387
I527
tp2145
(lp2146
(I352
I562
tp2147
a(I422
I492
tp2148
a(I352
I492
tp2149
a(I422
I562
tp2150
a(I387
I492
tp2151
a(I352
I527
tp2152
a(I387
I562
tp2153
a(I422
I527
tp2154
as(I737
I177
tp2155
(lp2156
(I702
I212
tp2157
a(I772
I142
tp2158
a(I702
I142
tp2159
a(I772
I212
tp2160
a(I737
I142
tp2161
a(I702
I177
tp2162
a(I737
I212
tp2163
a(I772
I177
tp2164
as(I317
I352
tp2165
(lp2166
(I282
I387
tp2167
a(I352
I317
tp2168
a(I282
I317
tp2169
a(I352
I387
tp2170
a(I317
I317
tp2171
a(I282
I352
tp2172
a(I317
I387
tp2173
a(I352
I352
tp2174
as(I1017
I282
tp2175
(lp2176
(I1017
I247
tp2177
a(I1017
I317
tp2178
as(I352
I247
tp2179
(lp2180
(I317
I282
tp2181
a(I387
I212
tp2182
a(I317
I212
tp2183
a(I387
I282
tp2184
a(I352
I212
tp2185
a(I317
I247
tp2186
a(I352
I282
tp2187
a(I387
I247
tp2188
as(I2
I142
tp2189
(lp2190
(I37
I107
tp2191
a(I37
I177
tp2192
a(I2
I107
tp2193
a(I2
I177
tp2194
a(I37
I142
tp2195
as(I457
I737
tp2196
(lp2197
(I422
I737
tp2198
a(I492
I737
tp2199
as(I2
I737
tp2200
(lp2201
(I37
I702
tp2202
a(I2
I702
tp2203
a(I37
I737
tp2204
as(I72
I702
tp2205
(lp2206
(I37
I737
tp2207
a(I37
I667
tp2208
a(I107
I737
tp2209
a(I72
I667
tp2210
a(I37
I702
tp2211
a(I72
I737
tp2212
as(I2
I492
tp2213
(lp2214
(I37
I457
tp2215
a(I37
I527
tp2216
a(I2
I457
tp2217
a(I2
I527
tp2218
a(I37
I492
tp2219
as(I632
I457
tp2220
(lp2221
(I597
I492
tp2222
a(I667
I422
tp2223
a(I597
I422
tp2224
a(I667
I492
tp2225
a(I632
I422
tp2226
a(I597
I457
tp2227
a(I632
I492
tp2228
a(I667
I457
tp2229
as(I702
I737
tp2230
(lp2231
(I667
I737
tp2232
a(I737
I737
tp2233
as(I562
I142
tp2234
(lp2235
(I527
I177
tp2236
a(I527
I107
tp2237
a(I597
I177
tp2238
a(I562
I107
tp2239
a(I527
I142
tp2240
a(I562
I177
tp2241
a(I597
I142
tp2242
as(I422
I107
tp2243
(lp2244
(I457
I72
tp2245
a(I457
I142
tp2246
a(I422
I72
tp2247
a(I422
I142
tp2248
a(I457
I107
tp2249
as(I37
I212
tp2250
(lp2251
(I2
I247
tp2252
a(I2
I177
tp2253
a(I72
I247
tp2254
a(I37
I177
tp2255
a(I2
I212
tp2256
a(I37
I247
tp2257
a(I72
I212
tp2258
as(I282
I2
tp2259
(lp2260
(I247
I37
tp2261
a(I317
I37
tp2262
a(I247
I2
tp2263
a(I282
I37
tp2264
a(I317
I2
tp2265
as(I772
I737
tp2266
(lp2267
(I737
I737
tp2268
a(I807
I737
tp2269
as(I282
I212
tp2270
(lp2271
(I317
I177
tp2272
a(I317
I247
tp2273
a(I282
I177
tp2274
a(I282
I247
tp2275
a(I317
I212
tp2276
as(I317
I562
tp2277
(lp2278
(I282
I597
tp2279
a(I352
I527
tp2280
a(I282
I527
tp2281
a(I352
I597
tp2282
a(I317
I527
tp2283
a(I282
I562
tp2284
a(I317
I597
tp2285
a(I352
I562
tp2286
as(I282
I352
tp2287
(lp2288
(I247
I387
tp2289
a(I317
I317
tp2290
a(I317
I387
tp2291
a(I282
I317
tp2292
a(I247
I352
tp2293
a(I282
I387
tp2294
a(I317
I352
tp2295
as(I772
I527
tp2296
(lp2297
(I737
I562
tp2298
a(I807
I492
tp2299
a(I737
I492
tp2300
a(I807
I562
tp2301
a(I772
I492
tp2302
a(I737
I527
tp2303
a(I772
I562
tp2304
a(I807
I527
tp2305
as(I702
I527
tp2306
(lp2307
(I667
I562
tp2308
a(I737
I492
tp2309
a(I667
I492
tp2310
a(I737
I562
tp2311
a(I702
I492
tp2312
a(I667
I527
tp2313
a(I702
I562
tp2314
a(I737
I527
tp2315
as(I597
I597
tp2316
(lp2317
(I632
I562
tp2318
a(I562
I562
tp2319
a(I632
I632
tp2320
a(I597
I562
tp2321
a(I562
I597
tp2322
a(I597
I632
tp2323
a(I632
I597
tp2324
as(I737
I247
tp2325
(lp2326
(I702
I282
tp2327
a(I772
I212
tp2328
a(I702
I212
tp2329
a(I772
I282
tp2330
a(I737
I212
tp2331
a(I702
I247
tp2332
a(I737
I282
tp2333
a(I772
I247
tp2334
as(I702
I317
tp2335
(lp2336
(I667
I352
tp2337
a(I737
I282
tp2338
a(I667
I282
tp2339
a(I737
I352
tp2340
a(I702
I282
tp2341
a(I667
I317
tp2342
a(I702
I352
tp2343
a(I737
I317
tp2344
as(I247
I457
tp2345
(lp2346
(I212
I492
tp2347
a(I282
I422
tp2348
a(I212
I422
tp2349
a(I282
I492
tp2350
a(I247
I422
tp2351
a(I212
I457
tp2352
a(I282
I457
tp2353
as(I597
I457
tp2354
(lp2355
(I562
I492
tp2356
a(I632
I422
tp2357
a(I562
I422
tp2358
a(I632
I492
tp2359
a(I597
I422
tp2360
a(I562
I457
tp2361
a(I597
I492
tp2362
a(I632
I457
tp2363
as(I737
I352
tp2364
(lp2365
(I772
I317
tp2366
a(I702
I317
tp2367
a(I772
I387
tp2368
a(I737
I317
tp2369
a(I702
I352
tp2370
a(I772
I352
tp2371
as(I352
I737
tp2372
(lp2373
(I317
I737
tp2374
a(I387
I737
tp2375
as(I1017
I702
tp2376
(lp2377
(I982
I737
tp2378
a(I1017
I667
tp2379
a(I982
I702
tp2380
a(I1017
I737
tp2381
as(I772
I37
tp2382
(lp2383
(I807
I2
tp2384
a(I737
I2
tp2385
a(I772
I2
tp2386
a(I737
I37
tp2387
a(I807
I37
tp2388
as(I527
I527
tp2389
(lp2390
(I492
I562
tp2391
a(I562
I492
tp2392
a(I492
I492
tp2393
a(I562
I562
tp2394
a(I527
I492
tp2395
a(I492
I527
tp2396
a(I527
I562
tp2397
a(I562
I527
tp2398
as(I37
I107
tp2399
(lp2400
(I2
I142
tp2401
a(I2
I72
tp2402
a(I37
I72
tp2403
a(I2
I107
tp2404
a(I37
I142
tp2405
as(I37
I422
tp2406
(lp2407
(I2
I457
tp2408
a(I72
I387
tp2409
a(I2
I387
tp2410
a(I72
I457
tp2411
a(I37
I387
tp2412
a(I2
I422
tp2413
a(I37
I457
tp2414
a(I72
I422
tp2415
as(I72
I597
tp2416
(lp2417
(I37
I632
tp2418
a(I37
I562
tp2419
a(I72
I562
tp2420
a(I37
I597
tp2421
a(I72
I632
tp2422
as(I492
I37
tp2423
(lp2424
(I457
I72
tp2425
a(I527
I2
tp2426
a(I457
I2
tp2427
a(I527
I72
tp2428
a(I492
I2
tp2429
a(I457
I37
tp2430
a(I492
I72
tp2431
a(I527
I37
tp2432
as(I247
I737
tp2433
(lp2434
(I212
I737
tp2435
a(I282
I737
tp2436
as(I422
I492
tp2437
(lp2438
(I387
I527
tp2439
a(I457
I527
tp2440
a(I387
I492
tp2441
a(I422
I527
tp2442
a(I457
I492
tp2443
as(I142
I2
tp2444
(lp2445
(I107
I37
tp2446
a(I177
I37
tp2447
a(I107
I2
tp2448
a(I142
I37
tp2449
a(I177
I2
tp2450
as(I317
I282
tp2451
(lp2452
(I282
I317
tp2453
a(I352
I247
tp2454
a(I282
I247
tp2455
a(I352
I317
tp2456
a(I317
I247
tp2457
a(I282
I282
tp2458
a(I317
I317
tp2459
a(I352
I282
tp2460
as(I37
I702
tp2461
(lp2462
(I2
I737
tp2463
a(I72
I667
tp2464
a(I2
I667
tp2465
a(I72
I737
tp2466
a(I37
I667
tp2467
a(I2
I702
tp2468
a(I37
I737
tp2469
a(I72
I702
tp2470
as(I667
I212
tp2471
(lp2472
(I632
I247
tp2473
a(I702
I177
tp2474
a(I632
I177
tp2475
a(I702
I247
tp2476
a(I667
I177
tp2477
a(I632
I212
tp2478
a(I667
I247
tp2479
a(I702
I212
tp2480
as(I527
I2
tp2481
(lp2482
(I492
I37
tp2483
a(I562
I37
tp2484
a(I492
I2
tp2485
a(I527
I37
tp2486
a(I562
I2
tp2487
as(I842
I422
tp2488
(lp2489
(I807
I457
tp2490
a(I877
I387
tp2491
a(I807
I387
tp2492
a(I877
I457
tp2493
a(I842
I387
tp2494
a(I807
I422
tp2495
a(I842
I457
tp2496
a(I877
I422
tp2497
as(I1017
I422
tp2498
(lp2499
(I982
I457
tp2500
a(I982
I387
tp2501
a(I1017
I387
tp2502
a(I982
I422
tp2503
a(I1017
I457
tp2504
as(I632
I282
tp2505
(lp2506
(I597
I317
tp2507
a(I667
I247
tp2508
a(I597
I247
tp2509
a(I667
I317
tp2510
a(I632
I247
tp2511
a(I597
I282
tp2512
a(I632
I317
tp2513
a(I667
I282
tp2514
as(I317
I737
tp2515
(lp2516
(I282
I737
tp2517
a(I352
I737
tp2518
as(I317
I2
tp2519
(lp2520
(I282
I37
tp2521
a(I352
I37
tp2522
a(I282
I2
tp2523
a(I317
I37
tp2524
a(I352
I2
tp2525
as(I457
I597
tp2526
(lp2527
(I492
I562
tp2528
a(I422
I562
tp2529
a(I457
I562
tp2530
a(I422
I597
tp2531
a(I492
I597
tp2532
as(I142
I387
tp2533
(lp2534
(I107
I422
tp2535
a(I177
I352
tp2536
a(I107
I352
tp2537
a(I177
I422
tp2538
a(I142
I352
tp2539
a(I107
I387
tp2540
a(I142
I422
tp2541
a(I177
I387
tp2542
as(I492
I247
tp2543
(lp2544
(I457
I282
tp2545
a(I527
I212
tp2546
a(I457
I212
tp2547
a(I527
I282
tp2548
a(I492
I212
tp2549
a(I457
I247
tp2550
a(I492
I282
tp2551
a(I527
I247
tp2552
as(I72
I37
tp2553
(lp2554
(I37
I72
tp2555
a(I107
I2
tp2556
a(I37
I2
tp2557
a(I72
I2
tp2558
a(I37
I37
tp2559
a(I107
I37
tp2560
as(I282
I597
tp2561
(lp2562
(I317
I562
tp2563
a(I282
I562
tp2564
a(I317
I597
tp2565
as(I1017
I107
tp2566
(lp2567
(I1017
I72
tp2568
a(I1017
I142
tp2569
as(I562
I352
tp2570
(lp2571
(I597
I317
tp2572
a(I527
I317
tp2573
a(I597
I387
tp2574
a(I562
I317
tp2575
a(I562
I387
tp2576
a(I597
I352
tp2577
as(I37
I177
tp2578
(lp2579
(I2
I212
tp2580
a(I2
I142
tp2581
a(I72
I212
tp2582
a(I37
I142
tp2583
a(I2
I177
tp2584
a(I37
I212
tp2585
as(I632
I667
tp2586
(lp2587
(I597
I702
tp2588
a(I667
I632
tp2589
a(I597
I632
tp2590
a(I632
I632
tp2591
a(I597
I667
tp2592
a(I632
I702
tp2593
as(I912
I2
tp2594
(lp2595
(I877
I37
tp2596
a(I947
I37
tp2597
a(I877
I2
tp2598
a(I912
I37
tp2599
a(I947
I2
tp2600
as(I247
I2
tp2601
(lp2602
(I212
I37
tp2603
a(I282
I37
tp2604
a(I212
I2
tp2605
a(I247
I37
tp2606
a(I282
I2
tp2607
as(I807
I37
tp2608
(lp2609
(I842
I2
tp2610
a(I772
I2
tp2611
a(I807
I2
tp2612
a(I772
I37
tp2613
a(I842
I37
tp2614
as(I72
I317
tp2615
(lp2616
(I37
I352
tp2617
a(I37
I282
tp2618
a(I107
I352
tp2619
a(I72
I282
tp2620
a(I37
I317
tp2621
a(I72
I352
tp2622
as(I527
I562
tp2623
(lp2624
(I492
I597
tp2625
a(I562
I527
tp2626
a(I492
I527
tp2627
a(I562
I597
tp2628
a(I527
I527
tp2629
a(I492
I562
tp2630
a(I527
I597
tp2631
a(I562
I562
tp2632
as(I597
I177
tp2633
(lp2634
(I562
I212
tp2635
a(I632
I142
tp2636
a(I562
I142
tp2637
a(I632
I212
tp2638
a(I597
I142
tp2639
a(I562
I177
tp2640
a(I597
I212
tp2641
a(I632
I177
tp2642
as(I877
I492
tp2643
(lp2644
(I842
I527
tp2645
a(I912
I457
tp2646
a(I842
I457
tp2647
a(I877
I457
tp2648
a(I842
I492
tp2649
as(I72
I247
tp2650
(lp2651
(I37
I282
tp2652
a(I37
I212
tp2653
a(I72
I212
tp2654
a(I37
I247
tp2655
a(I72
I282
tp2656
as(I597
I562
tp2657
(lp2658
(I562
I597
tp2659
a(I632
I527
tp2660
a(I562
I527
tp2661
a(I632
I597
tp2662
a(I597
I527
tp2663
a(I562
I562
tp2664
a(I597
I597
tp2665
a(I632
I562
tp2666
as(I422
I72
tp2667
(lp2668
(I457
I37
tp2669
a(I387
I37
tp2670
a(I457
I107
tp2671
a(I422
I37
tp2672
a(I422
I107
tp2673
a(I457
I72
tp2674
as(I597
I317
tp2675
(lp2676
(I562
I352
tp2677
a(I632
I282
tp2678
a(I562
I282
tp2679
a(I632
I352
tp2680
a(I597
I282
tp2681
a(I562
I317
tp2682
a(I597
I352
tp2683
a(I632
I317
tp2684
as(I212
I422
tp2685
(lp2686
(I177
I457
tp2687
a(I247
I387
tp2688
a(I177
I387
tp2689
a(I247
I457
tp2690
a(I212
I387
tp2691
a(I177
I422
tp2692
a(I212
I457
tp2693
a(I247
I422
tp2694
as(I457
I37
tp2695
(lp2696
(I422
I72
tp2697
a(I492
I2
tp2698
a(I422
I2
tp2699
a(I492
I72
tp2700
a(I457
I2
tp2701
a(I422
I37
tp2702
a(I457
I72
tp2703
a(I492
I37
tp2704
as(I2
I317
tp2705
(lp2706
(I37
I282
tp2707
a(I37
I352
tp2708
a(I2
I282
tp2709
a(I2
I352
tp2710
a(I37
I317
tp2711
as(I877
I247
tp2712
(lp2713
(I842
I282
tp2714
a(I842
I212
tp2715
a(I877
I212
tp2716
a(I842
I247
tp2717
a(I877
I282
tp2718
as(I667
I632
tp2719
(lp2720
(I632
I667
tp2721
a(I702
I597
tp2722
a(I632
I597
tp2723
a(I667
I597
tp2724
a(I632
I632
tp2725
a(I702
I632
tp2726
as(I317
I457
tp2727
(lp2728
(I282
I492
tp2729
a(I352
I422
tp2730
a(I282
I422
tp2731
a(I352
I492
tp2732
a(I317
I422
tp2733
a(I282
I457
tp2734
a(I317
I492
tp2735
a(I352
I457
tp2736
as(I212
I737
tp2737
(lp2738
(I177
I737
tp2739
a(I247
I737
tp2740
as(I422
I597
tp2741
(lp2742
(I457
I562
tp2743
a(I387
I562
tp2744
a(I422
I562
tp2745
a(I387
I597
tp2746
a(I457
I597
tp2747
as(I737
I282
tp2748
(lp2749
(I702
I317
tp2750
a(I772
I247
tp2751
a(I702
I247
tp2752
a(I772
I317
tp2753
a(I737
I247
tp2754
a(I702
I282
tp2755
a(I737
I317
tp2756
a(I772
I282
tp2757
as(I772
I387
tp2758
(lp2759
(I807
I352
tp2760
a(I737
I352
tp2761
a(I807
I422
tp2762
a(I772
I352
tp2763
a(I807
I387
tp2764
as(I2
I37
tp2765
(lp2766
(I37
I2
tp2767
a(I37
I72
tp2768
a(I2
I2
tp2769
a(I2
I72
tp2770
a(I37
I37
tp2771
as(I387
I37
tp2772
(lp2773
(I422
I2
tp2774
a(I352
I2
tp2775
a(I422
I72
tp2776
a(I387
I2
tp2777
a(I352
I37
tp2778
a(I422
I37
tp2779
as(I72
I527
tp2780
(lp2781
(I37
I562
tp2782
a(I107
I492
tp2783
a(I37
I492
tp2784
a(I72
I492
tp2785
a(I37
I527
tp2786
a(I72
I562
tp2787
as(I317
I177
tp2788
(lp2789
(I282
I212
tp2790
a(I352
I212
tp2791
a(I282
I177
tp2792
a(I317
I212
tp2793
a(I352
I177
tp2794
as(I282
I177
tp2795
(lp2796
(I317
I212
tp2797
a(I282
I212
tp2798
a(I317
I177
tp2799
as(I667
I527
tp2800
(lp2801
(I632
I562
tp2802
a(I702
I492
tp2803
a(I632
I492
tp2804
a(I702
I562
tp2805
a(I667
I492
tp2806
a(I632
I527
tp2807
a(I667
I562
tp2808
a(I702
I527
tp2809
as(I667
I492
tp2810
(lp2811
(I632
I527
tp2812
a(I632
I457
tp2813
a(I702
I527
tp2814
a(I667
I457
tp2815
a(I632
I492
tp2816
a(I667
I527
tp2817
a(I702
I492
tp2818
as(I807
I562
tp2819
(lp2820
(I842
I527
tp2821
a(I772
I527
tp2822
a(I807
I527
tp2823
a(I772
I562
tp2824
as(I737
I317
tp2825
(lp2826
(I702
I352
tp2827
a(I772
I282
tp2828
a(I702
I282
tp2829
a(I772
I352
tp2830
a(I737
I282
tp2831
a(I702
I317
tp2832
a(I737
I352
tp2833
a(I772
I317
tp2834
as(I422
I37
tp2835
(lp2836
(I457
I2
tp2837
a(I387
I2
tp2838
a(I457
I72
tp2839
a(I422
I2
tp2840
a(I387
I37
tp2841
a(I422
I72
tp2842
a(I457
I37
tp2843
as(I2
I282
tp2844
(lp2845
(I37
I247
tp2846
a(I37
I317
tp2847
a(I2
I247
tp2848
a(I2
I317
tp2849
a(I37
I282
tp2850
as(I597
I527
tp2851
(lp2852
(I562
I562
tp2853
a(I632
I492
tp2854
a(I562
I492
tp2855
a(I632
I562
tp2856
a(I597
I492
tp2857
a(I562
I527
tp2858
a(I597
I562
tp2859
a(I632
I527
tp2860
as(I772
I282
tp2861
(lp2862
(I737
I317
tp2863
a(I807
I247
tp2864
a(I737
I247
tp2865
a(I807
I317
tp2866
a(I772
I247
tp2867
a(I737
I282
tp2868
a(I772
I317
tp2869
a(I807
I282
tp2870
as(I2
I597
tp2871
(lp2872
(I37
I562
tp2873
a(I37
I632
tp2874
a(I2
I562
tp2875
a(I2
I632
tp2876
a(I37
I597
tp2877
as(I282
I387
tp2878
(lp2879
(I247
I422
tp2880
a(I317
I352
tp2881
a(I247
I352
tp2882
a(I317
I422
tp2883
a(I282
I352
tp2884
a(I247
I387
tp2885
a(I282
I422
tp2886
a(I317
I387
tp2887
as(I597
I387
tp2888
(lp2889
(I562
I422
tp2890
a(I632
I352
tp2891
a(I562
I352
tp2892
a(I632
I422
tp2893
a(I597
I352
tp2894
a(I562
I387
tp2895
a(I597
I422
tp2896
a(I632
I387
tp2897
as(I597
I632
tp2898
(lp2899
(I632
I597
tp2900
a(I562
I597
tp2901
a(I632
I667
tp2902
a(I597
I597
tp2903
a(I597
I667
tp2904
a(I632
I632
tp2905
as(I2
I2
tp2906
(lp2907
(I2
I2
tp2908
a(I37
I37
tp2909
a(I2
I37
tp2910
a(I37
I2
tp2911
as(I702
I142
tp2912
(lp2913
(I667
I177
tp2914
a(I737
I177
tp2915
a(I667
I142
tp2916
a(I702
I177
tp2917
a(I737
I142
tp2918
as(I842
I457
tp2919
(lp2920
(I807
I492
tp2921
a(I877
I422
tp2922
a(I807
I422
tp2923
a(I877
I492
tp2924
a(I842
I422
tp2925
a(I807
I457
tp2926
a(I842
I492
tp2927
a(I877
I457
tp2928
as(I422
I142
tp2929
(lp2930
(I387
I177
tp2931
a(I457
I107
tp2932
a(I457
I177
tp2933
a(I422
I107
tp2934
a(I422
I177
tp2935
a(I457
I142
tp2936
as(I632
I142
tp2937
(lp2938
(I597
I177
tp2939
a(I667
I177
tp2940
a(I597
I142
tp2941
a(I632
I177
tp2942
a(I667
I142
tp2943
as(I597
I2
tp2944
(lp2945
(I562
I37
tp2946
a(I632
I37
tp2947
a(I562
I2
tp2948
a(I597
I37
tp2949
a(I632
I2
tp2950
as(I387
I597
tp2951
(lp2952
(I422
I562
tp2953
a(I352
I562
tp2954
a(I387
I562
tp2955
a(I352
I597
tp2956
a(I422
I597
tp2957
as(I177
I2
tp2958
(lp2959
(I142
I37
tp2960
a(I212
I37
tp2961
a(I142
I2
tp2962
a(I177
I37
tp2963
a(I212
I2
tp2964
as(I2
I422
tp2965
(lp2966
(I37
I387
tp2967
a(I37
I457
tp2968
a(I2
I387
tp2969
a(I2
I457
tp2970
a(I37
I422
tp2971
as(I527
I142
tp2972
(lp2973
(I492
I177
tp2974
a(I562
I107
tp2975
a(I492
I107
tp2976
a(I562
I177
tp2977
a(I527
I107
tp2978
a(I492
I142
tp2979
a(I527
I177
tp2980
a(I562
I142
tp2981
as(I107
I492
tp2982
(lp2983
(I72
I527
tp2984
a(I142
I457
tp2985
a(I72
I457
tp2986
a(I107
I457
tp2987
a(I72
I492
tp2988
a(I142
I492
tp2989
as(I1017
I247
tp2990
(lp2991
(I1017
I212
tp2992
a(I1017
I282
tp2993
as(I37
I457
tp2994
(lp2995
(I2
I492
tp2996
a(I72
I422
tp2997
a(I2
I422
tp2998
a(I72
I492
tp2999
a(I37
I422
tp3000
a(I2
I457
tp3001
a(I37
I492
tp3002
a(I72
I457
tp3003
as(I37
I37
tp3004
(lp3005
(I2
I72
tp3006
a(I72
I2
tp3007
a(I2
I2
tp3008
a(I37
I2
tp3009
a(I2
I37
tp3010
a(I37
I72
tp3011
a(I72
I37
tp3012
as(I2
I562
tp3013
(lp3014
(I37
I527
tp3015
a(I37
I597
tp3016
a(I2
I527
tp3017
a(I2
I597
tp3018
a(I37
I562
tp3019
as(I107
I2
tp3020
(lp3021
(I72
I37
tp3022
a(I142
I37
tp3023
a(I72
I2
tp3024
a(I107
I37
tp3025
a(I142
I2
tp3026
as(I177
I492
tp3027
(lp3028
(I212
I457
tp3029
a(I142
I457
tp3030
a(I177
I457
tp3031
a(I142
I492
tp3032
a(I212
I492
tp3033
as(I422
I282
tp3034
(lp3035
(I387
I317
tp3036
a(I457
I247
tp3037
a(I387
I247
tp3038
a(I457
I317
tp3039
a(I422
I247
tp3040
a(I387
I282
tp3041
a(I422
I317
tp3042
a(I457
I282
tp3043
as(I37
I317
tp3044
(lp3045
(I2
I352
tp3046
a(I72
I282
tp3047
a(I2
I282
tp3048
a(I72
I352
tp3049
a(I37
I282
tp3050
a(I2
I317
tp3051
a(I37
I352
tp3052
a(I72
I317
tp3053
as(I877
I352
tp3054
(lp3055
(I842
I387
tp3056
a(I842
I317
tp3057
a(I912
I387
tp3058
a(I877
I317
tp3059
a(I842
I352
tp3060
a(I877
I387
tp3061
as(I492
I737
tp3062
(lp3063
(I457
I737
tp3064
a(I527
I737
tp3065
as(I807
I282
tp3066
(lp3067
(I772
I317
tp3068
a(I842
I247
tp3069
a(I772
I247
tp3070
a(I842
I317
tp3071
a(I807
I247
tp3072
a(I772
I282
tp3073
a(I807
I317
tp3074
a(I842
I282
tp3075
as(I282
I317
tp3076
(lp3077
(I247
I352
tp3078
a(I317
I282
tp3079
a(I317
I352
tp3080
a(I282
I282
tp3081
a(I282
I352
tp3082
a(I317
I317
tp3083
as(I142
I492
tp3084
(lp3085
(I177
I457
tp3086
a(I107
I457
tp3087
a(I142
I457
tp3088
a(I107
I492
tp3089
a(I177
I492
tp3090
as(I982
I457
tp3091
(lp3092
(I1017
I422
tp3093
a(I947
I422
tp3094
a(I1017
I492
tp3095
a(I982
I422
tp3096
a(I947
I457
tp3097
a(I1017
I457
tp3098
as(I562
I422
tp3099
(lp3100
(I597
I387
tp3101
a(I597
I457
tp3102
a(I562
I387
tp3103
a(I562
I457
tp3104
a(I597
I422
tp3105
as(I912
I387
tp3106
(lp3107
(I877
I422
tp3108
a(I877
I352
tp3109
a(I947
I422
tp3110
a(I877
I387
tp3111
a(I912
I422
tp3112
a(I947
I387
tp3113
as(I737
I37
tp3114
(lp3115
(I772
I2
tp3116
a(I702
I2
tp3117
a(I737
I2
tp3118
a(I702
I37
tp3119
a(I772
I37
tp3120
as(I772
I352
tp3121
(lp3122
(I807
I317
tp3123
a(I737
I317
tp3124
a(I807
I387
tp3125
a(I772
I317
tp3126
a(I737
I352
tp3127
a(I772
I387
tp3128
a(I807
I352
tp3129
as(I72
I632
tp3130
(lp3131
(I37
I667
tp3132
a(I37
I597
tp3133
a(I72
I597
tp3134
a(I37
I632
tp3135
a(I72
I667
tp3136
as(I282
I282
tp3137
(lp3138
(I317
I247
tp3139
a(I317
I317
tp3140
a(I282
I247
tp3141
a(I282
I317
tp3142
a(I317
I282
tp3143
as(I387
I562
tp3144
(lp3145
(I352
I597
tp3146
a(I422
I527
tp3147
a(I352
I527
tp3148
a(I422
I597
tp3149
a(I387
I527
tp3150
a(I352
I562
tp3151
a(I387
I597
tp3152
a(I422
I562
tp3153
as(I947
I387
tp3154
(lp3155
(I912
I422
tp3156
a(I982
I422
tp3157
a(I912
I387
tp3158
a(I947
I422
tp3159
a(I982
I387
tp3160
as(I632
I317
tp3161
(lp3162
(I597
I352
tp3163
a(I667
I282
tp3164
a(I597
I282
tp3165
a(I667
I352
tp3166
a(I632
I282
tp3167
a(I597
I317
tp3168
a(I632
I352
tp3169
a(I667
I317
tp3170
as(I842
I177
tp3171
(lp3172
(I807
I212
tp3173
a(I877
I142
tp3174
a(I807
I142
tp3175
a(I877
I212
tp3176
a(I842
I142
tp3177
a(I807
I177
tp3178
a(I842
I212
tp3179
a(I877
I177
tp3180
as(I597
I247
tp3181
(lp3182
(I562
I282
tp3183
a(I632
I212
tp3184
a(I562
I212
tp3185
a(I632
I282
tp3186
a(I597
I212
tp3187
a(I562
I247
tp3188
a(I597
I282
tp3189
a(I632
I247
tp3190
as(I702
I37
tp3191
(lp3192
(I737
I2
tp3193
a(I667
I2
tp3194
a(I702
I2
tp3195
a(I667
I37
tp3196
a(I737
I37
tp3197
as(I457
I562
tp3198
(lp3199
(I422
I597
tp3200
a(I492
I527
tp3201
a(I422
I527
tp3202
a(I492
I597
tp3203
a(I457
I527
tp3204
a(I422
I562
tp3205
a(I457
I597
tp3206
a(I492
I562
tp3207
as(I352
I387
tp3208
(lp3209
(I317
I422
tp3210
a(I317
I352
tp3211
a(I352
I352
tp3212
a(I317
I387
tp3213
a(I352
I422
tp3214
as(I807
I457
tp3215
(lp3216
(I772
I492
tp3217
a(I842
I422
tp3218
a(I842
I492
tp3219
a(I807
I422
tp3220
a(I807
I492
tp3221
a(I842
I457
tp3222
as(I177
I352
tp3223
(lp3224
(I142
I387
tp3225
a(I212
I387
tp3226
a(I142
I352
tp3227
a(I177
I387
tp3228
a(I212
I352
tp3229
as(I807
I212
tp3230
(lp3231
(I772
I247
tp3232
a(I842
I177
tp3233
a(I772
I177
tp3234
a(I842
I247
tp3235
a(I807
I177
tp3236
a(I772
I212
tp3237
a(I807
I247
tp3238
a(I842
I212
tp3239
as(I632
I702
tp3240
(lp3241
(I597
I737
tp3242
a(I597
I667
tp3243
a(I667
I737
tp3244
a(I632
I667
tp3245
a(I597
I702
tp3246
a(I632
I737
tp3247
as(I352
I352
tp3248
(lp3249
(I317
I387
tp3250
a(I387
I317
tp3251
a(I317
I317
tp3252
a(I352
I317
tp3253
a(I317
I352
tp3254
a(I352
I387
tp3255
as(I562
I457
tp3256
(lp3257
(I527
I492
tp3258
a(I597
I422
tp3259
a(I597
I492
tp3260
a(I562
I422
tp3261
a(I562
I492
tp3262
a(I597
I457
tp3263
as(I877
I457
tp3264
(lp3265
(I842
I492
tp3266
a(I912
I422
tp3267
a(I842
I422
tp3268
a(I877
I422
tp3269
a(I842
I457
tp3270
a(I877
I492
tp3271
a(I912
I457
tp3272
as(I527
I282
tp3273
(lp3274
(I492
I317
tp3275
a(I562
I247
tp3276
a(I492
I247
tp3277
a(I562
I317
tp3278
a(I527
I247
tp3279
a(I492
I282
tp3280
a(I527
I317
tp3281
a(I562
I282
tp3282
as(I562
I247
tp3283
(lp3284
(I527
I282
tp3285
a(I597
I212
tp3286
a(I527
I212
tp3287
a(I597
I282
tp3288
a(I562
I212
tp3289
a(I527
I247
tp3290
a(I562
I282
tp3291
a(I597
I247
tp3292
as(I72
I387
tp3293
(lp3294
(I37
I422
tp3295
a(I107
I352
tp3296
a(I37
I352
tp3297
a(I107
I422
tp3298
a(I72
I352
tp3299
a(I37
I387
tp3300
a(I72
I422
tp3301
a(I107
I387
tp3302
as(I667
I142
tp3303
(lp3304
(I632
I177
tp3305
a(I702
I177
tp3306
a(I632
I142
tp3307
a(I667
I177
tp3308
a(I702
I142
tp3309
as(I562
I527
tp3310
(lp3311
(I527
I562
tp3312
a(I597
I492
tp3313
a(I527
I492
tp3314
a(I597
I562
tp3315
a(I562
I492
tp3316
a(I527
I527
tp3317
a(I562
I562
tp3318
a(I597
I527
tp3319
as(I702
I212
tp3320
(lp3321
(I667
I247
tp3322
a(I737
I177
tp3323
a(I667
I177
tp3324
a(I737
I247
tp3325
a(I702
I177
tp3326
a(I667
I212
tp3327
a(I702
I247
tp3328
a(I737
I212
tp3329
as(I562
I317
tp3330
(lp3331
(I597
I282
tp3332
a(I527
I282
tp3333
a(I597
I352
tp3334
a(I562
I282
tp3335
a(I527
I317
tp3336
a(I562
I352
tp3337
a(I597
I317
tp3338
as(I807
I247
tp3339
(lp3340
(I772
I282
tp3341
a(I842
I212
tp3342
a(I772
I212
tp3343
a(I842
I282
tp3344
a(I807
I212
tp3345
a(I772
I247
tp3346
a(I807
I282
tp3347
a(I842
I247
tp3348
as(I737
I212
tp3349
(lp3350
(I702
I247
tp3351
a(I772
I177
tp3352
a(I702
I177
tp3353
a(I772
I247
tp3354
a(I737
I177
tp3355
a(I702
I212
tp3356
a(I737
I247
tp3357
a(I772
I212
tp3358
as(I282
I562
tp3359
(lp3360
(I317
I527
tp3361
a(I317
I597
tp3362
a(I282
I527
tp3363
a(I282
I597
tp3364
a(I317
I562
tp3365
as(I1017
I317
tp3366
(lp3367
(I1017
I282
tp3368
a(I1017
I352
tp3369
as(I352
I597
tp3370
(lp3371
(I387
I562
tp3372
a(I317
I562
tp3373
a(I352
I562
tp3374
a(I317
I597
tp3375
a(I387
I597
tp3376
as(I807
I387
tp3377
(lp3378
(I842
I352
tp3379
a(I772
I352
tp3380
a(I842
I422
tp3381
a(I807
I352
tp3382
a(I772
I387
tp3383
a(I807
I422
tp3384
a(I842
I387
tp3385
as(I107
I352
tp3386
(lp3387
(I72
I387
tp3388
a(I72
I317
tp3389
a(I142
I387
tp3390
a(I72
I352
tp3391
a(I107
I387
tp3392
a(I142
I352
tp3393
as(I2
I387
tp3394
(lp3395
(I37
I352
tp3396
a(I37
I422
tp3397
a(I2
I352
tp3398
a(I2
I422
tp3399
a(I37
I387
tp3400
as(I877
I212
tp3401
(lp3402
(I842
I247
tp3403
a(I842
I177
tp3404
a(I877
I177
tp3405
a(I842
I212
tp3406
a(I877
I247
tp3407
as(I317
I527
tp3408
(lp3409
(I282
I562
tp3410
a(I352
I492
tp3411
a(I282
I492
tp3412
a(I352
I562
tp3413
a(I317
I492
tp3414
a(I282
I527
tp3415
a(I317
I562
tp3416
a(I352
I527
tp3417
as(I107
I37
tp3418
(lp3419
(I142
I2
tp3420
a(I72
I2
tp3421
a(I107
I2
tp3422
a(I72
I37
tp3423
a(I142
I37
tp3424
as(I422
I737
tp3425
(lp3426
(I387
I737
tp3427
a(I457
I737
tp3428
as(I142
I737
tp3429
(lp3430
(I107
I737
tp3431
a(I177
I737
tp3432
as(I737
I562
tp3433
(lp3434
(I702
I597
tp3435
a(I772
I527
tp3436
a(I702
I527
tp3437
a(I737
I527
tp3438
a(I702
I562
tp3439
a(I737
I597
tp3440
a(I772
I562
tp3441
as(I492
I177
tp3442
(lp3443
(I457
I212
tp3444
a(I527
I142
tp3445
a(I457
I142
tp3446
a(I527
I212
tp3447
a(I492
I142
tp3448
a(I457
I177
tp3449
a(I492
I212
tp3450
a(I527
I177
tp3451
as(I37
I72
tp3452
(lp3453
(I2
I107
tp3454
a(I72
I37
tp3455
a(I2
I37
tp3456
a(I37
I37
tp3457
a(I2
I72
tp3458
a(I37
I107
tp3459
as(I37
I387
tp3460
(lp3461
(I2
I422
tp3462
a(I72
I352
tp3463
a(I2
I352
tp3464
a(I72
I422
tp3465
a(I37
I352
tp3466
a(I2
I387
tp3467
a(I37
I422
tp3468
a(I72
I387
tp3469
as.